
010a9071-2450-11e4-abe2-0002a5d5c51b.elf:     file format elf32-littlearm
010a9071-2450-11e4-abe2-0002a5d5c51b.elf
architecture: arm, flags 0x00000150:
HAS_SYMS, DYNAMIC, D_PAGED
start address 0x00000020

Program Header:
    LOAD off    0x00010000 vaddr 0x00000000 paddr 0x00000000 align 2**16
         filesz 0x0000a7dc memsz 0x0000a7dc flags r-x
    LOAD off    0x0001a7dc vaddr 0x0000a7dc paddr 0x0000a7dc align 2**16
         filesz 0x00001bfc memsz 0x00001bfc flags r--
    LOAD off    0x0001d000 vaddr 0x0000d000 paddr 0x0000d000 align 2**16
         filesz 0x00000098 memsz 0x0000ac28 flags rw-
 DYNAMIC off    0x0001c224 vaddr 0x0000c224 paddr 0x0000c224 align 2**2
         filesz 0x00000078 memsz 0x00000078 flags rw-

Dynamic Section:
  HASH                 0x0000c39c
  STRTAB               0x0000c33c
  SYMTAB               0x0000c29c
  STRSZ                0x0000005f
  SYMENT               0x00000010
  DEBUG                0x00000000
  REL                  0x0000c12c
  RELSZ                0x000000f8
  RELENT               0x00000008
  RELCOUNT             0x00000018
private flags = 5000402: [Version5 EABI] [hard-float ABI] [has entry point]

Sections:
Idx Name          Size      VMA       LMA       File off  Algn
  0 .ta_head      00000020  00000000  00000000  00010000  2**3
                  CONTENTS, ALLOC, LOAD, DATA
  1 .text         0000a7bc  00000020  00000020  00010020  2**2
                  CONTENTS, ALLOC, LOAD, READONLY, CODE
  2 .rodata       00001928  0000a7dc  0000a7dc  0001a7dc  2**2
                  CONTENTS, ALLOC, LOAD, READONLY, DATA
  3 .got          00000028  0000c104  0000c104  0001c104  2**2
                  CONTENTS, ALLOC, LOAD, DATA
  4 .dynsym       000000a0  0000c29c  0000c29c  0001c29c  2**2
                  CONTENTS, ALLOC, LOAD, READONLY, DATA
  5 .rel.got      00000038  0000c1ec  0000c1ec  0001c1ec  2**2
                  CONTENTS, ALLOC, LOAD, READONLY, DATA
  6 .dynamic      00000078  0000c224  0000c224  0001c224  2**2
                  CONTENTS, ALLOC, LOAD, DATA
  7 .dynstr       0000005f  0000c33c  0000c33c  0001c33c  2**0
                  CONTENTS, ALLOC, LOAD, READONLY, DATA
  8 .hash         0000003c  0000c39c  0000c39c  0001c39c  2**2
                  CONTENTS, ALLOC, LOAD, READONLY, DATA
  9 .data         00000098  0000d000  0000d000  0001d000  2**2
                  CONTENTS, ALLOC, LOAD, DATA
 10 .bss          0000ab90  0000d098  0000d098  0001d098  2**2
                  ALLOC
 11 .debug_info   0000929c  00000000  00000000  0001d098  2**0
                  CONTENTS, READONLY, DEBUGGING
 12 .debug_abbrev 00002bd2  00000000  00000000  00026334  2**0
                  CONTENTS, READONLY, DEBUGGING
 13 .debug_aranges 000004c0  00000000  00000000  00028f06  2**0
                  CONTENTS, READONLY, DEBUGGING
 14 .debug_macro  00005618  00000000  00000000  000293c6  2**0
                  CONTENTS, READONLY, DEBUGGING
 15 .debug_line   0000682f  00000000  00000000  0002e9de  2**0
                  CONTENTS, READONLY, DEBUGGING
 16 .debug_str    0000ffcc  00000000  00000000  0003520d  2**0
                  CONTENTS, READONLY, DEBUGGING
 17 .comment      0000002d  00000000  00000000  000451d9  2**0
                  CONTENTS, READONLY
 18 .ARM.attributes 00000038  00000000  00000000  00045206  2**0
                  CONTENTS, READONLY
 19 .debug_frame  0000287c  00000000  00000000  00045240  2**2
                  CONTENTS, READONLY, DEBUGGING
 20 .rel.dyn      000000c0  0000c12c  0000c12c  0001c12c  2**2
                  CONTENTS, ALLOC, LOAD, READONLY, DATA
SYMBOL TABLE:
00000000 l    d  .ta_head	00000000 .ta_head
00000020 l    d  .text	00000000 .text
0000a7dc l    d  .rodata	00000000 .rodata
0000c104 l    d  .got	00000000 .got
0000c1ec l    d  .rel.got	00000000 .rel.got
0000c224 l    d  .dynamic	00000000 .dynamic
0000c29c l    d  .dynsym	00000000 .dynsym
0000c33c l    d  .dynstr	00000000 .dynstr
0000c39c l    d  .hash	00000000 .hash
0000d000 l    d  .data	00000000 .data
0000d098 l    d  .bss	00000000 .bss
00000000 l    d  .debug_info	00000000 .debug_info
00000000 l    d  .debug_abbrev	00000000 .debug_abbrev
00000000 l    d  .debug_aranges	00000000 .debug_aranges
00000000 l    d  .debug_macro	00000000 .debug_macro
00000000 l    d  .debug_line	00000000 .debug_line
00000000 l    d  .debug_str	00000000 .debug_str
00000000 l    d  .comment	00000000 .comment
00000000 l    d  .ARM.attributes	00000000 .ARM.attributes
00000000 l    d  .debug_frame	00000000 .debug_frame
0000c12c l    d  .rel.dyn	00000000 .rel.dyn
00000000 l    df *ABS*	00000000 user_ta_header.c
0000a910 l     O .rodata	00000001 __compound_literal.0
0000a911 l     O .rodata	00000001 __compound_literal.1
0000a912 l     O .rodata	00000001 __compound_literal.2
0000a914 l     O .rodata	00000004 __compound_literal.3
0000a918 l     O .rodata	00000004 __compound_literal.4
0000a91c l     O .rodata	00000004 __compound_literal.5
00000000 l    df *ABS*	00000000 hello_ianni_ta.c
0000a878 l     O .rodata	00000014 __func__.4932
0000a88c l     O .rodata	00000015 __func__.4936
0000a8a4 l     O .rodata	00000019 __func__.4943
0000a8c0 l     O .rodata	0000001a __func__.4947
0000010c l     F .text	000000f4 inc_value
0000a8dc l     O .rodata	0000000a __func__.4953
0000a8e8 l     O .rodata	0000001b __func__.4961
00000000 l    df *ABS*	00000000 user_ta_entry.c
0000d070 l     O .data	00000008 ta_sessions
000150bc l     O .bss	00000004 ta_ref_count
000150c0 l     O .bss	00000001 context_init
0000025c l     F .text	00000058 ta_header_save_params
000002b4 l     F .text	00000044 ta_header_get_session
000002f8 l     F .text	00000124 ta_header_add_session
0000041c l     F .text	00000098 ta_header_remove_session
000004b4 l     F .text	0000008e entry_open_session
00000544 l     F .text	00000040 entry_close_session
00000584 l     F .text	00000070 entry_invoke_command
0000aa20 l     O .rodata	0000000d __func__.5453
00000000 l    df *ABS*	00000000 utee_syscalls_a32.o
00000000 l    df *ABS*	00000000 tee_api_arith.c
000150c4 l     O .bss	00001b00 mempool_u32
0000d078 l     O .data	00000004 mempool
00000c54 l     F .text	00000054 TEE_BigInt_Panic
0000aa9c l     O .rodata	00000011 __func__.5241
0000aab0 l     O .rodata	00000021 __func__.5277
0000aad4 l     O .rodata	0000001f __func__.5286
0000aaf4 l     O .rodata	00000017 __func__.5298
00000000 l    df *ABS*	00000000 tee_api.c
0000ab0c l     O .rodata	00000004 DEFAULT_TEE_MALLOC_HINT
00016bc4 l     O .bss	00000004 tee_api_instance_data
0000ab1c l     O .rodata	00000013 __func__.5423
0000ab30 l     O .rodata	00000014 __func__.5435
0000ab44 l     O .rodata	00000017 __func__.5446
0000ab5c l     O .rodata	00000015 __func__.5452
0000ab74 l     O .rodata	00000012 __func__.5485
0000ab88 l     O .rodata	00000009 __func__.5490
0000ab94 l     O .rodata	00000018 __func__.5495
0000abac l     O .rodata	00000018 __func__.5500
0000abc4 l     O .rodata	0000000f __func__.5505
00000000 l    df *ABS*	00000000 tee_api_panic.c
00000000 l    df *ABS*	00000000 utee_misc.c
00000000 l    df *ABS*	00000000 tee_user_mem.c
0000abd4 l     O .rodata	00000004 DEFAULT_TEE_MALLOC_HINT
0000d07c l     O .data	00000004 ARTIST
0000abd8 l     O .rodata	00000004 CANARY_LINE_SIZE
0000205c l     F .text	0000001e buf_addr
0000207c l     F .text	00000028 buf_size
000020a4 l     F .text	0000001e elem_addr
000020c4 l     F .text	00000048 is_buffer_valid
0000210c l     F .text	00000068 print_buf
00016bc8 l     O .bss	00000004 heap_level
00016bcc l     O .bss	00000008 global_stats
00002174 l     F .text	00000060 heap_inc
000021d4 l     F .text	00000064 heap_dec
00002238 l     F .text	00000064 check_elem_end
0000ace4 l     O .rodata	0000000f __func__.5051
0000229c l     F .text	00000104 check_elem
0000acf4 l     O .rodata	0000000b __func__.5056
000023a0 l     F .text	00000060 is_mem_coherent
0000ad00 l     O .rodata	00000010 __func__.5061
0000ad10 l     O .rodata	00000013 __func__.5076
0000ad24 l     O .rodata	00000012 __func__.5093
0000ad38 l     O .rodata	00000018 __func__.5101
000027c0 l     F .text	00000068 tee_user_mem_status
0000ad50 l     O .rodata	00000014 __func__.5106
00000000 l    df *ABS*	00000000 trace_ext.c
0000ad64 l     O .rodata	0000000a prefix.4778
0000ad70 l     O .rodata	00000011 failed.4779
0000ad84 l     O .rodata	00000005 trunc.4780
00000000 l    df *ABS*	00000000 assert.c
00000000 l    df *ABS*	00000000 bget_malloc.c
00002a1c l     F .text	00000014 malloc_lock
00002a30 l     F .text	00000018 malloc_unlock
00002a48 l     F .text	0000001a tag_asan_free
00002a64 l     F .text	0000001a tag_asan_alloced
0000d088 l     O .data	00000010 freelist
00016bd4 l     O .bss	00000004 totalloc
00016bd8 l     O .bss	00000004 numget
00016bdc l     O .bss	00000004 numrel
0000b1b8 l     O .rodata	00000005 __func__.4465
0000b1c0 l     O .rodata	00000006 __func__.4479
0000b1c8 l     O .rodata	00000006 __func__.4487
0000b1d0 l     O .rodata	00000005 __func__.4494
0000b1d8 l     O .rodata	00000006 __func__.4502
0000b1e0 l     O .rodata	00000007 __func__.4511
00016be0 l     O .bss	00000004 malloc_pool
00016be4 l     O .bss	00000004 malloc_pool_len
00016be8 l     O .bss	00000038 mstats
00003358 l     F .text	0000009c raw_malloc_return_hook
00003498 l     F .text	00000010 raw_malloc_validate_pools
000034a8 l     F .text	00000030 bpool_foreach_iterator_init
000034d8 l     F .text	000000d8 bpool_foreach_pool
0000b1e8 l     O .rodata	00000013 __func__.4550
000035b0 l     F .text	00000080 bpool_foreach
00003630 l     F .text	0000005e raw_malloc
00003690 l     F .text	00000024 raw_free
000036b4 l     F .text	00000070 raw_calloc
00003724 l     F .text	00000060 raw_realloc
00003784 l     F .text	0000015c create_free_block
0000b1fc l     O .rodata	00000012 __func__.4597
000038e0 l     F .text	0000015c brel_before
0000b210 l     O .rodata	0000000c __func__.4606
00003a3c l     F .text	00000220 brel_after
0000b21c l     O .rodata	0000000b __func__.4616
00003c5c l     F .text	00000148 raw_memalign
0000b228 l     O .rodata	0000000d __func__.4630
00003da4 l     F .text	0000005c bget_buf_size
0000b238 l     O .rodata	0000000e __func__.4636
00003e94 l     F .text	00000028 realloc_unlocked
00003f24 l     F .text	00000026 get_payload_start_size
0000b248 l     O .rodata	00000010 __func__.4682
00000000 l    df *ABS*	00000000 snprintf.c
00000000 l    df *ABS*	00000000 memcmp.c
00000000 l    df *ABS*	00000000 memcpy.c
00000000 l    df *ABS*	00000000 memmove.c
00000000 l    df *ABS*	00000000 memset.c
00000000 l    df *ABS*	00000000 strlen.c
00000000 l    df *ABS*	00000000 snprintk.c
0000b258 l     O .rodata	00000011 hexdigits
0000b26c l     O .rodata	00000011 HEXDIGITS
000048b4 l     F .text	00000e1c kprintf
00004814 l     F .text	000000a0 uuid2str
00000000 l    df *ABS*	00000000 strlcpy.c
00000000 l    df *ABS*	00000000 trace.c
000057c0 l     F .text	0000005c trace_level_to_string
0000b300 l     O .rodata	0000002d lvl_strs.4343
00000000 l    df *ABS*	00000000 memchr.c
00000000 l    df *ABS*	00000000 arm32_aeabi_ldivmod_a32.o
00000000 l    df *ABS*	00000000 arm32_aeabi_ldivmod.c
00005c54 l     F .text	000000ee division_lqr
00005d44 l     F .text	0000006a ul_div_qr
00000000 l    df *ABS*	00000000 mpa_misc.c
00000000 l    df *ABS*	00000000 mpa_montgomery.c
00000000 l    df *ABS*	00000000 mpa_primetest.c
0000bf98 l     O .rodata	000000b8 const_small_prime_factors
0000c050 l     O .rodata	00000010 const_miller_rabin_proof_limit
0000c060 l     O .rodata	0000000c const_two
000066e4 l     F .text	0000009a is_small_prime
00006780 l     F .text	00000060 has_small_factors
000067e0 l     F .text	000002c4 primality_test_miller_rabin
000066ac l     F .text	00000038 check_table
0000c06c l     O .rodata	0000001c proof_a.4721
00000000 l    df *ABS*	00000000 mpa_conv.c
00000000 l    df *ABS*	00000000 mpa_div.c
00006bf0 l     F .text	000000d8 __mpa_soft_div
00006d20 l     F .text	0000061a __mpa_div_q_r_internal
00000000 l    df *ABS*	00000000 mpa_gcd.c
00007694 l     F .text	000000f4 __mpa_divby2
00007788 l     F .text	000002c8 __mpa_egcd
00007a50 l     F .text	0000015a __mpa_gcd
00000000 l    df *ABS*	00000000 mpa_mem_static.c
00000000 l    df *ABS*	00000000 mpa_mul.c
00000000 l    df *ABS*	00000000 mpa_random.c
00016c20 l     O .bss	00000004 get_rng_array
00008534 l     F .text	00000034 get_random_byte
00000000 l    df *ABS*	00000000 mpa_shift.c
00000000 l    df *ABS*	00000000 mpa_addsub.c
00000000 l    df *ABS*	00000000 mpa_cmp.c
00000000 l    df *ABS*	00000000 mpa_expmod.c
00000000 l    df *ABS*	00000000 mpa_init.c
00000000 l    df *ABS*	00000000 mpa_io.c
00009b7c l     F .text	00000042 __mpa_isspace
00009bc0 l     F .text	00000084 __mpa_is_char_in_base
00009c44 l     F .text	00000058 __mpa_digit_value
00009c9c l     F .text	00000022 __mpa_digitstr_to_binary_wsize_base_16
00009cc0 l     F .text	00000050 __mpa_nibble_to_char
00009d10 l     F .text	00000066 __mpa_word_to_hexstr
00009d78 l     F .text	00000128 __mpa_mpanum_to_hexstr
00009ea0 l     F .text	00000050 __mpa_count_leading_zero_bits
00009ef0 l     F .text	00000064 __mpa_size_in_base_255
0000c0ec l     O .rodata	0000000c __func__.4795
00016c24 l     O .bss	00001002 buf.4781
0000c0f8 l     O .rodata	0000000c __func__.4809
0000a32c l     F .text	00000064 set_word
0000a47c l     F .text	00000044 get_word
00000000 l    df *ABS*	00000000 mpa_modulus.c
00000000 l    df *ABS*	00000000 
0000c224 l     O *ABS*	00000000 _DYNAMIC
0000c104 l     O *ABS*	00000000 _GLOBAL_OFFSET_TABLE_
00000c14 g     F .text	00000018 utee_se_channel_transmit
00009a94 g     F .text	0000004c mpa_init_static
00005f88 g     F .text	00000048 mpa_copy
000015bc g     F .text	0000004c TEE_BigIntConvertToFMM
0000141c g     F .text	00000024 TEE_BigIntSquareMod
00000ff8 g     F .text	0000002a TEE_BigIntShiftRight
00006af0 g     F .text	00000096 mpa_get_S32
00006004 g     F .text	00000080 mpa_highest_bit_index
00000a04 g     F .text	00000018 utee_storage_obj_create
00005e24 g     F .text	000000e6 __l_divmod
00000bd8 g     F .text	00000014 utee_se_session_close
00000684 g     F .text	00000014 utee_return
00000b34 g     F .text	00000014 utee_se_service_get_readers
00001ee8 g     F .text	00000020 TEE_Realloc
0000733c g     F .text	00000132 __mpa_div_q_r_internal_word
00002548 g     F .text	000000ac tee_user_mem_realloc
00009208 g     F .text	00000202 mpa_sub
0000289c g     F .text	000000fc printf
000025f4 g     F .text	00000138 tee_user_mem_free
00000698 g     F .text	00000014 utee_log
0000b35c g     O .rodata	00000004 NR_STORED_PRIMES
00001a04 g     F .text	000000b8 TEE_InvokeTACommand
000060f0 g     F .text	00000032 mpa_can_hold
000081e0 g     F .text	000000ae __mpa_abs_mul_word
00006608 g     F .text	0000004c mpa_montgomery_mul
00004770 g     F .text	0000002e vsnprintk
00006124 g     F .text	0000002a mpa_parity
00004450 g     F .text	0000013e memmove
00008ce0 g     F .text	00000064 __mpa_full_adder_ackum
00004238 g     F .text	0000003c snprintf
00000fd4 g     F .text	00000024 TEE_BigIntCmpS32
00001078 g     F .text	00000038 TEE_BigIntAdd
000006d8 g     F .text	00000014 utee_get_property_name_to_index
0000a90c g     O .rodata	00000004 ta_heap_size
0000b358 g     O .rodata	00000004 MAX_TABULATED_PRIME
00001fc4 g     F .text	0000001c utee_malloc
000007bc g     F .text	00000018 utee_cryp_state_alloc
0000098c g     F .text	00000018 utee_authenc_enc_final
00008158 g     F .text	00000088 __mpa_mul_add_word_cum
000010e8 g     F .text	00000026 TEE_BigIntNeg
000075bc g     F .text	000000d6 mpa_div
0000b34c g     O .rodata	0000000c const_one
00004174 g     F .text	000000c4 malloc_buffer_overlaps_heap
00009800 g     F .text	00000026 __mpa_abs_less_than
000012dc g     F .text	00000084 TEE_BigIntSubMod
00008568 g     F .text	0000013c mpa_get_random
0000203c g     F .text	00000020 get_rng_array
0000581c g     F .text	000002d4 trace_printf
00000b0c g     F .text	00000014 utee_se_service_open
0000435c g     F .text	000000f2 memcpy
000007e8 g     F .text	00000014 utee_cryp_state_free
00005f54 g     F .text	00000034 mpa_wipe
00001608 g     F .text	00000090 TEE_BigIntConvertFromFMM
00001fa0 g     F .text	00000010 TEE_Panic
00000c00 g     F .text	00000014 utee_se_channel_get_select_resp
00005c3c g     F .text	00000018 __aeabi_uldivmod
00002998 g     F .text	00000028 puts
00001698 g     F .text	0000004c TEE_BigIntComputeFMM
00006b88 g     F .text	00000032 mpa_set_word
00003454 g     F .text	00000044 malloc_get_stats
0000880c g     F .text	00000228 mpa_shift_left
00000868 g     F .text	00000018 utee_cipher_final
0000839c g     F .text	000000c4 mpa_mul
00001e70 g     F .text	00000058 TEE_GetREETime
0000d004 g     O .data	0000006c ta_props
00003e00 g     F .text	00000032 malloc
000008d0 g     F .text	00000014 utee_cryp_obj_close
00000b70 g     F .text	00000014 utee_se_reader_open_session
00004274 g     F .text	0000002e vsnprintf
0000d000 g     O .data	00000004 trace_level
00001fb0 g     F .text	00000014 utee_get_ta_exec_id
00000fac g     F .text	00000028 TEE_BigIntCmp
00001fe0 g     F .text	00000020 utee_realloc
0000aa10 g     O .rodata	00000004 ta_num_props
00002d7c g     F .text	00000094 bgetr
00000974 g     F .text	00000018 utee_authenc_update_payload
00000e7c g     F .text	00000090 TEE_BigIntConvertToOctetString
00000c40 g     F .text	00000014 utee_cache_operation
00000948 g     F .text	00000018 utee_authenc_init
00001024 g     F .text	0000002e TEE_BigIntGetBit
0000a904 g     O .rodata	00000008 trace_ext_prefix
00008d44 g     F .text	00000114 __mpa_abs_add
00002ce8 g     F .text	00000094 bgetz
00001c14 g     F .text	0000001c TEE_GetInstanceData
00001cf8 g     F .text	00000060 TEE_Wait
00000abc g     F .text	00000014 utee_storage_obj_write
0000804c g     F .text	00000090 mpa_free_static_temp_var
00006654 g     F .text	00000056 mpa_is_prob_prime
00000c2c g     F .text	00000014 utee_se_channel_close
00008460 g     F .text	000000aa mpa_mul_word
00001f48 g     F .text	00000024 TEE_CacheFlush
00000054 g     F .text	00000030 TA_DestroyEntryPoint
000029c0 g     F .text	00000048 _assert_log
00000dc0 g     F .text	0000002e TEE_BigIntFMMContextSizeInU32
00007470 g     F .text	0000014a __mpa_div_q_r
00000ca8 g     F .text	00000044 _TEE_MathAPI_Init
00000a94 g     F .text	00000014 utee_storage_next_enum
0000d098 g     O .bss	00008000 ta_heap
00001440 g     F .text	00000068 TEE_BigIntInvMod
000000d8 g     F .text	00000034 TA_CloseSessionEntryPoint
000007d4 g     F .text	00000014 utee_cryp_state_copy
00000200 g     F .text	00000054 TA_InvokeCommandEntryPoint
0000a390 g     F .text	000000ec mpa_set_oct_str
00000bc0 g     F .text	00000018 utee_se_session_open_channel
000086a4 g     F .text	000000b2 __mpa_shift_words_left
000008bc g     F .text	00000014 utee_cryp_obj_alloc
000007a8 g     F .text	00000014 utee_set_ta_time
000008a8 g     F .text	00000014 utee_cryp_obj_get_attr
0000629c g     F .text	0000011a __mpa_montgomery_sub_ack
00003e5c g     F .text	00000036 calloc
00001ec8 g     F .text	00000020 TEE_Malloc
0000076c g     F .text	00000014 utee_mask_cancellation
000008e4 g     F .text	00000014 utee_cryp_obj_reset
00001ba8 g     F .text	00000042 TEE_CheckMemoryAccessRights
00005db0 g     F .text	00000072 __ul_divmod
0000940c g     F .text	0000002a mpa_neg
0000b360 g     O .rodata	00000c38 PRIME_TABLE
00000084 g     F .text	00000054 TA_OpenSessionEntryPoint
00007bac g     F .text	000000ec mpa_gcd
00005fd0 g     F .text	00000032 mpa_abs
00000a80 g     F .text	00000014 utee_storage_start_enum
00009f68 g     F .text	00000334 mpa_set_str
00000a30 g     F .text	00000014 utee_storage_obj_rename
00015098 g     O .bss	00000004 ta_param_types
00001570 g     F .text	0000004c TEE_BigIntIsProbablePrime
00008024 g     F .text	00000026 mpa_alloc_static_temp_var
0000850c g     F .text	00000028 mpa_set_random_generator
000006c0 g     F .text	00000018 utee_get_property
00000cec g     F .text	0000001e TEE_BigIntInit
00001c30 g     F .text	00000024 TEE_MemMove
00000df0 g     F .text	0000008c TEE_BigIntConvertFromOctetString
00005b10 g     F .text	00000114 memchr
00001af0 g     F .text	0000005c TEE_UnmaskCancellation
0000a6a4 g     F .text	00000050 mpa_mul_mod
00000a1c g     F .text	00000014 utee_storage_obj_del
00000ae4 g     F .text	00000014 utee_storage_obj_seek
000064e8 g     F .text	00000120 mpa_compute_fmm_context
00000810 g     F .text	00000014 utee_hash_update
00007e74 g     F .text	00000048 mpa_init_scratch_mem_sync
000011dc g     F .text	0000007c TEE_BigIntMod
00000bec g     F .text	00000014 utee_se_channel_select_next
00000704 g     F .text	00000014 utee_close_ta_session
0000117c g     F .text	00000060 TEE_BigIntDiv
000056d0 g     F .text	00000084 strlcpy
000033f4 g     F .text	00000060 malloc_reset_stats
00000850 g     F .text	00000018 utee_cipher_update
00000bac g     F .text	00000014 utee_se_session_get_atr
00003ebc g     F .text	0000002e realloc
00008e58 g     F .text	000000e6 __mpa_abs_add_ackum
000009d4 g     F .text	00000018 utee_asymm_verify
00001110 g     F .text	00000038 TEE_BigIntMul
00006bbc g     F .text	00000032 mpa_get_word
00001c78 g     F .text	00000026 TEE_MemFill
000042a4 g     F .text	000000b8 memcmp
00003f4c g     F .text	00000188 malloc_add_pool
0000579c g     F .text	00000024 trace_get_level
00000934 g     F .text	00000014 utee_cryp_random_number_generate
00000d98 g     F .text	00000026 TEE_BigIntFMMSizeInU32
00000d0c g     F .text	00000040 TEE_BigIntInitFMM
000009bc g     F .text	00000018 utee_asymm_operate
000005f4 g     F .text	00000090 __utee_entry
000014a8 g     F .text	0000007c TEE_BigIntRelativePrime
00003170 g     F .text	00000124 bpool
00006aa4 g     F .text	0000004c mpa_set_S32
00009ae0 g     F .text	0000009c mpa_init_static_fmm_context
00001abc g     F .text	00000034 TEE_GetCancellationFlag
00000b20 g     F .text	00000014 utee_se_service_close
00002400 g     F .text	00000148 tee_user_mem_alloc
0000d080 g     O .data	00000008 user_mem_head
00001e04 g     F .text	0000006c TEE_SetTAPersistentTime
00009438 g     F .text	0000014a mpa_add_word
00000b48 g     F .text	00000014 utee_se_reader_get_prop
00004590 g     F .text	0000011c memset
00001d58 g     F .text	000000ac TEE_GetTAPersistentTime
00005af0 g     F .text	0000001e dhex_dump
00001b4c g     F .text	0000005c TEE_MaskCancellation
00008c78 g     F .text	00000068 __mpa_full_sub
00000aa8 g     F .text	00000014 utee_storage_obj_read
00002000 g     F .text	00000020 utee_calloc
000008f8 g     F .text	00000014 utee_cryp_obj_populate
00009828 g     F .text	0000008a mpa_cmp
0000a6f4 g     F .text	000000e8 mpa_inv_mod
00009584 g     F .text	0000014e mpa_sub_word
000080dc g     F .text	0000007a __mpa_mul_add_word
0000902c g     F .text	000001da mpa_add
00009960 g     F .text	00000134 mpa_exp_mod
00008758 g     F .text	000000b4 __mpa_shift_words_right
00005754 g     F .text	00000048 trace_set_level
00000b98 g     F .text	00000014 utee_se_session_is_closed
00000880 g     F .text	00000014 utee_cryp_obj_get_info
00000a44 g     F .text	00000014 utee_storage_alloc_enum
00000a6c g     F .text	00000014 utee_storage_reset_enum
00000ad0 g     F .text	00000014 utee_storage_obj_trunc
0000a5d8 g     F .text	0000002c mpa_mod
000097d4 g     F .text	0000002a __mpa_abs_greater_than
00000f30 g     F .text	0000007c TEE_BigIntConvertToS32
000010b0 g     F .text	00000038 TEE_BigIntSub
00000730 g     F .text	00000014 utee_get_cancellation_flag
000007fc g     F .text	00000014 utee_hash_init
00000254 g     F .text	00000008 tahead_get_trace_level
000016e4 g     F .text	00000166 __utee_from_param
0000b33c g     O .rodata	00000010 Const_1_LShift_Base
0000184c g     F .text	000000f8 __utee_to_param
00003eec g     F .text	00000036 memalign
00000f0c g     F .text	00000022 TEE_BigIntConvertFromS32
0000a654 g     F .text	00000050 mpa_sub_mod
00000894 g     F .text	00000014 utee_cryp_obj_restrict_usage
000040d4 g     F .text	0000009e malloc_buffer_is_within_alloced
0000090c g     F .text	00000014 utee_cryp_obj_copy
00008a34 g     F .text	000001de mpa_shift_right
00000d4c g     F .text	0000004c TEE_BigIntInitFMMContext
00000920 g     F .text	00000014 utee_cryp_derive_key
000063b8 g     F .text	00000130 __mpa_montgomery_mul
0000a4c0 g     F .text	00000116 mpa_get_oct_str
000098b4 g     F .text	000000aa mpa_cmp_short
000009a4 g     F .text	00000018 utee_authenc_dec_final
000096d4 g     F .text	00000100 __mpa_abs_cmp
00001148 g     F .text	00000034 TEE_BigIntSquare
00000020 g     F .text	00000034 TA_CreateEntryPoint
00004738 g     F .text	00000036 snprintk
00001054 g     F .text	00000024 TEE_BigIntGetBitCount
00001360 g     F .text	000000bc TEE_BigIntMulMod
00001f90 g     F .text	00000010 __TEE_Panic
0001509c g     O .bss	00000020 ta_params
00008290 g     F .text	0000010c __mpa_abs_mul
00002a80 g     F .text	00000268 bget
00001f08 g     F .text	0000001a TEE_Free
00000b5c g     F .text	00000014 utee_se_reader_get_name
00001f6c g     F .text	00000024 TEE_CacheInvalidate
0000083c g     F .text	00000014 utee_cipher_init
00002a08 g     F .text	00000012 _assert_break
00001258 g     F .text	00000084 TEE_BigIntAddMod
00000a58 g     F .text	00000014 utee_storage_free_enum
00000960 g     F .text	00000014 utee_authenc_update_aad
00006084 g     F .text	0000006a mpa_get_bit
00007ebc g     F .text	00000032 mpa_init_scratch_mem
00001c54 g     F .text	00000024 TEE_MemCompare
000047a0 g     F .text	00000072 __vsnprintf
00001944 g     F .text	00000066 TEE_OpenTASession
000006ac g     F .text	00000014 utee_panic
00002864 g     F .text	00000024 trace_ext_puts
00002828 g     F .text	0000003c tee_user_mem_garbage
00002888 g     F .text	00000014 trace_ext_get_thread_id
00001f24 g     F .text	00000024 TEE_CacheClean
000006ec g     F .text	00000018 utee_open_ta_session
00006cc8 g     F .text	00000058 __mpa_div_dword
00005f0c g     F .text	00000048 __mpa_set_unused_digits_to_zero
0000b330 g     O .rodata	0000000c const_largest_deci_base
00009f54 g     F .text	00000014 mpa_get_str_size
0000274c g     F .text	00000074 tee_user_mem_check_heap
00000824 g     F .text	00000018 utee_hash_final
000046ac g     F .text	0000008a strlen
00001524 g     F .text	0000004c TEE_BigIntComputeExtendedGcd
00007c98 g     F .text	000001da mpa_extended_gcd
0000a604 g     F .text	00000050 mpa_add_mod
000009ec g     F .text	00000018 utee_storage_obj_open
00000718 g     F .text	00000018 utee_invoke_ta_command
0000a29c g     F .text	00000090 mpa_get_str
00000780 g     F .text	00000014 utee_wait
00002020 g     F .text	0000001a utee_free
0000272c g     F .text	00000020 tee_user_mem_mark_heap
00001ca0 g     F .text	00000058 TEE_GetSystemTime
00000000 g     O .ta_head	00000020 ta_head
00002e10 g     F .text	00000360 brel
00007ef0 g     F .text	00000134 mpa_alloc_static_temp_var_size
00000794 g     F .text	00000014 utee_get_time
00006168 g     F .text	00000134 __mpa_montgomery_mul_add
00001bec g     F .text	00000028 TEE_SetInstanceData
00000758 g     F .text	00000014 utee_unmask_cancellation
00005c24 g     F .text	00000000 __aeabi_ldivmod
00000744 g     F .text	00000014 utee_check_access_rights
00000b84 g     F .text	00000014 utee_se_reader_close_sessions
00000af8 g     F .text	00000014 utee_cryp_obj_generate_key
000019ac g     F .text	00000058 TEE_CloseTASession
00006150 g     F .text	00000018 mpa_constant_one
00008c14 g     F .text	00000064 __mpa_full_adder
00008f40 g     F .text	000000ec __mpa_abs_sub
00003e34 g     F .text	00000026 free
00003294 g     F .text	000000c4 bstats



Disassembly of section .text:

00000020 <TA_CreateEntryPoint>:
TA_CreateEntryPoint():
/home/ocean/projects/invisiblecode/invisible-code/optee_qemu/hello_ianni/ta/hello_ianni_ta.c:40
      20:	f84d ed04 	str.w	lr, [sp, #-4]!
      24:	b083      	sub	sp, #12
/home/ocean/projects/invisiblecode/invisible-code/optee_qemu/hello_ianni/ta/hello_ianni_ta.c:41
      26:	4b09      	ldr	r3, [pc, #36]	; (4c <TA_CreateEntryPoint+0x2c>)
      28:	447b      	add	r3, pc
      2a:	9300      	str	r3, [sp, #0]
      2c:	f04f 0301 	mov.w	r3, #1
      30:	f04f 0203 	mov.w	r2, #3
      34:	f04f 0129 	mov.w	r1, #41	; 0x29
      38:	4805      	ldr	r0, [pc, #20]	; (50 <TA_CreateEntryPoint+0x30>)
      3a:	4478      	add	r0, pc
      3c:	f005 fbee 	bl	581c <trace_printf>
/home/ocean/projects/invisiblecode/invisible-code/optee_qemu/hello_ianni/ta/hello_ianni_ta.c:42
      40:	f04f 0300 	mov.w	r3, #0
/home/ocean/projects/invisiblecode/invisible-code/optee_qemu/hello_ianni/ta/hello_ianni_ta.c:43
      44:	4618      	mov	r0, r3
      46:	b003      	add	sp, #12
      48:	f85d fb04 	ldr.w	pc, [sp], #4
      4c:	0000a7b0 	.word	0x0000a7b0
      50:	0000a83a 	.word	0x0000a83a

00000054 <TA_DestroyEntryPoint>:
TA_DestroyEntryPoint():
/home/ocean/projects/invisiblecode/invisible-code/optee_qemu/hello_ianni/ta/hello_ianni_ta.c:50
      54:	f84d ed04 	str.w	lr, [sp, #-4]!
      58:	b083      	sub	sp, #12
/home/ocean/projects/invisiblecode/invisible-code/optee_qemu/hello_ianni/ta/hello_ianni_ta.c:51
      5a:	4b08      	ldr	r3, [pc, #32]	; (7c <TA_DestroyEntryPoint+0x28>)
      5c:	447b      	add	r3, pc
      5e:	9300      	str	r3, [sp, #0]
      60:	f04f 0301 	mov.w	r3, #1
      64:	f04f 0203 	mov.w	r2, #3
      68:	f04f 0133 	mov.w	r1, #51	; 0x33
      6c:	4804      	ldr	r0, [pc, #16]	; (80 <TA_DestroyEntryPoint+0x2c>)
      6e:	4478      	add	r0, pc
      70:	f005 fbd4 	bl	581c <trace_printf>
/home/ocean/projects/invisiblecode/invisible-code/optee_qemu/hello_ianni/ta/hello_ianni_ta.c:52
      74:	bf00      	nop
      76:	b003      	add	sp, #12
      78:	f85d fb04 	ldr.w	pc, [sp], #4
      7c:	0000a77c 	.word	0x0000a77c
      80:	0000a81a 	.word	0x0000a81a

00000084 <TA_OpenSessionEntryPoint>:
TA_OpenSessionEntryPoint():
/home/ocean/projects/invisiblecode/invisible-code/optee_qemu/hello_ianni/ta/hello_ianni_ta.c:63
      84:	f84d ed04 	str.w	lr, [sp, #-4]!
      88:	b089      	sub	sp, #36	; 0x24
      8a:	9005      	str	r0, [sp, #20]
      8c:	9104      	str	r1, [sp, #16]
      8e:	9203      	str	r2, [sp, #12]
/home/ocean/projects/invisiblecode/invisible-code/optee_qemu/hello_ianni/ta/hello_ianni_ta.c:64
      90:	f04f 0300 	mov.w	r3, #0
      94:	9307      	str	r3, [sp, #28]
/home/ocean/projects/invisiblecode/invisible-code/optee_qemu/hello_ianni/ta/hello_ianni_ta.c:68
      96:	9a05      	ldr	r2, [sp, #20]
      98:	9b07      	ldr	r3, [sp, #28]
      9a:	429a      	cmp	r2, r3
      9c:	d004      	beq.n	a8 <TA_OpenSessionEntryPoint+0x24>
/home/ocean/projects/invisiblecode/invisible-code/optee_qemu/hello_ianni/ta/hello_ianni_ta.c:69
      9e:	f04f 0306 	mov.w	r3, #6
      a2:	f6cf 73ff 	movt	r3, #65535	; 0xffff
      a6:	e00e      	b.n	c6 <TA_OpenSessionEntryPoint+0x42>
/home/ocean/projects/invisiblecode/invisible-code/optee_qemu/hello_ianni/ta/hello_ianni_ta.c:79
      a8:	4b09      	ldr	r3, [pc, #36]	; (d0 <TA_OpenSessionEntryPoint+0x4c>)
      aa:	447b      	add	r3, pc
      ac:	9300      	str	r3, [sp, #0]
      ae:	f04f 0301 	mov.w	r3, #1
      b2:	f04f 0203 	mov.w	r2, #3
      b6:	f04f 014f 	mov.w	r1, #79	; 0x4f
      ba:	4806      	ldr	r0, [pc, #24]	; (d4 <TA_OpenSessionEntryPoint+0x50>)
      bc:	4478      	add	r0, pc
      be:	f005 fbad 	bl	581c <trace_printf>
/home/ocean/projects/invisiblecode/invisible-code/optee_qemu/hello_ianni/ta/hello_ianni_ta.c:82
      c2:	f04f 0300 	mov.w	r3, #0
/home/ocean/projects/invisiblecode/invisible-code/optee_qemu/hello_ianni/ta/hello_ianni_ta.c:83
      c6:	4618      	mov	r0, r3
      c8:	b009      	add	sp, #36	; 0x24
      ca:	f85d fb04 	ldr.w	pc, [sp], #4
      ce:	bf00      	nop
      d0:	0000a73e 	.word	0x0000a73e
      d4:	0000a7e4 	.word	0x0000a7e4

000000d8 <TA_CloseSessionEntryPoint>:
TA_CloseSessionEntryPoint():
/home/ocean/projects/invisiblecode/invisible-code/optee_qemu/hello_ianni/ta/hello_ianni_ta.c:90
      d8:	f84d ed04 	str.w	lr, [sp, #-4]!
      dc:	b085      	sub	sp, #20
      de:	9003      	str	r0, [sp, #12]
/home/ocean/projects/invisiblecode/invisible-code/optee_qemu/hello_ianni/ta/hello_ianni_ta.c:92
      e0:	4b08      	ldr	r3, [pc, #32]	; (104 <TA_CloseSessionEntryPoint+0x2c>)
      e2:	447b      	add	r3, pc
      e4:	9300      	str	r3, [sp, #0]
      e6:	f04f 0301 	mov.w	r3, #1
      ea:	f04f 0203 	mov.w	r2, #3
      ee:	f04f 015c 	mov.w	r1, #92	; 0x5c
      f2:	4805      	ldr	r0, [pc, #20]	; (108 <TA_CloseSessionEntryPoint+0x30>)
      f4:	4478      	add	r0, pc
      f6:	f005 fb91 	bl	581c <trace_printf>
/home/ocean/projects/invisiblecode/invisible-code/optee_qemu/hello_ianni/ta/hello_ianni_ta.c:93
      fa:	bf00      	nop
      fc:	b005      	add	sp, #20
      fe:	f85d fb04 	ldr.w	pc, [sp], #4
     102:	bf00      	nop
     104:	0000a716 	.word	0x0000a716
     108:	0000a7c8 	.word	0x0000a7c8

0000010c <inc_value>:
inc_value():
/home/ocean/projects/invisiblecode/invisible-code/optee_qemu/hello_ianni/ta/hello_ianni_ta.c:98
     10c:	f84d 4d14 	str.w	r4, [sp, #-20]!
     110:	e9cd 5601 	strd	r5, r6, [sp, #4]
     114:	e9cd 7e03 	strd	r7, lr, [sp, #12]
     118:	b087      	sub	sp, #28
     11a:	9003      	str	r0, [sp, #12]
     11c:	9102      	str	r1, [sp, #8]
/home/ocean/projects/invisiblecode/invisible-code/optee_qemu/hello_ianni/ta/hello_ianni_ta.c:99
     11e:	f04f 0303 	mov.w	r3, #3
     122:	9305      	str	r3, [sp, #20]
/home/ocean/projects/invisiblecode/invisible-code/optee_qemu/hello_ianni/ta/hello_ianni_ta.c:108
     124:	4b2e      	ldr	r3, [pc, #184]	; (1e0 <inc_value+0xd4>)
     126:	447b      	add	r3, pc
     128:	9300      	str	r3, [sp, #0]
     12a:	f04f 0301 	mov.w	r3, #1
     12e:	f04f 0203 	mov.w	r2, #3
     132:	f04f 016c 	mov.w	r1, #108	; 0x6c
     136:	482b      	ldr	r0, [pc, #172]	; (1e4 <inc_value+0xd8>)
     138:	4478      	add	r0, pc
     13a:	f005 fb6f 	bl	581c <trace_printf>
/home/ocean/projects/invisiblecode/invisible-code/optee_qemu/hello_ianni/ta/hello_ianni_ta.c:109
     13e:	9a03      	ldr	r2, [sp, #12]
     140:	9b05      	ldr	r3, [sp, #20]
     142:	429a      	cmp	r2, r3
     144:	d004      	beq.n	150 <inc_value+0x44>
/home/ocean/projects/invisiblecode/invisible-code/optee_qemu/hello_ianni/ta/hello_ianni_ta.c:110
     146:	f04f 0306 	mov.w	r3, #6
     14a:	f6cf 73ff 	movt	r3, #65535	; 0xffff
     14e:	e03d      	b.n	1cc <inc_value+0xc0>
/home/ocean/projects/invisiblecode/invisible-code/optee_qemu/hello_ianni/ta/hello_ianni_ta.c:112
     150:	9b02      	ldr	r3, [sp, #8]
     152:	681b      	ldr	r3, [r3, #0]
     154:	9301      	str	r3, [sp, #4]
     156:	4b24      	ldr	r3, [pc, #144]	; (1e8 <inc_value+0xdc>)
     158:	447b      	add	r3, pc
     15a:	9300      	str	r3, [sp, #0]
     15c:	f04f 0301 	mov.w	r3, #1
     160:	f04f 0203 	mov.w	r2, #3
     164:	f04f 0170 	mov.w	r1, #112	; 0x70
     168:	4820      	ldr	r0, [pc, #128]	; (1ec <inc_value+0xe0>)
     16a:	4478      	add	r0, pc
     16c:	f005 fb56 	bl	581c <trace_printf>
/home/ocean/projects/invisiblecode/invisible-code/optee_qemu/hello_ianni/ta/hello_ianni_ta.c:131
     170:	9b02      	ldr	r3, [sp, #8]
     172:	681b      	ldr	r3, [r3, #0]
/home/ocean/projects/invisiblecode/invisible-code/optee_qemu/hello_ianni/ta/hello_ianni_ta.c:123
     174:	469e      	mov	lr, r3
     176:	f04f 0000 	mov.w	r0, #0
     17a:	f04f 0101 	mov.w	r1, #1
     17e:	f04f 0202 	mov.w	r2, #2
     182:	f04f 0303 	mov.w	r3, #3
     186:	f04f 0404 	mov.w	r4, #4
     18a:	f04f 0505 	mov.w	r5, #5
     18e:	f04f 0606 	mov.w	r6, #6
     192:	47f0      	blx	lr
/home/ocean/projects/invisiblecode/invisible-code/optee_qemu/hello_ianni/ta/hello_ianni_ta.c:158
     194:	4b16      	ldr	r3, [pc, #88]	; (1f0 <inc_value+0xe4>)
     196:	447b      	add	r3, pc
     198:	9300      	str	r3, [sp, #0]
     19a:	f04f 0301 	mov.w	r3, #1
     19e:	f04f 0203 	mov.w	r2, #3
     1a2:	f04f 019e 	mov.w	r1, #158	; 0x9e
     1a6:	4813      	ldr	r0, [pc, #76]	; (1f4 <inc_value+0xe8>)
     1a8:	4478      	add	r0, pc
     1aa:	f005 fb37 	bl	581c <trace_printf>
/home/ocean/projects/invisiblecode/invisible-code/optee_qemu/hello_ianni/ta/hello_ianni_ta.c:160
     1ae:	4b12      	ldr	r3, [pc, #72]	; (1f8 <inc_value+0xec>)
     1b0:	447b      	add	r3, pc
     1b2:	9300      	str	r3, [sp, #0]
     1b4:	f04f 0301 	mov.w	r3, #1
     1b8:	f04f 0203 	mov.w	r2, #3
     1bc:	f04f 01a0 	mov.w	r1, #160	; 0xa0
     1c0:	480e      	ldr	r0, [pc, #56]	; (1fc <inc_value+0xf0>)
     1c2:	4478      	add	r0, pc
     1c4:	f005 fb2a 	bl	581c <trace_printf>
/home/ocean/projects/invisiblecode/invisible-code/optee_qemu/hello_ianni/ta/hello_ianni_ta.c:161
     1c8:	f04f 0300 	mov.w	r3, #0
/home/ocean/projects/invisiblecode/invisible-code/optee_qemu/hello_ianni/ta/hello_ianni_ta.c:162
     1cc:	4618      	mov	r0, r3
     1ce:	b007      	add	sp, #28
     1d0:	e9dd 4500 	ldrd	r4, r5, [sp]
     1d4:	e9dd 6702 	ldrd	r6, r7, [sp, #8]
     1d8:	b004      	add	sp, #16
     1da:	f85d fb04 	ldr.w	pc, [sp], #4
     1de:	bf00      	nop
     1e0:	0000a6b2 	.word	0x0000a6b2
     1e4:	0000a7a0 	.word	0x0000a7a0
     1e8:	0000a6ac 	.word	0x0000a6ac
     1ec:	0000a76e 	.word	0x0000a76e
     1f0:	0000a686 	.word	0x0000a686
     1f4:	0000a730 	.word	0x0000a730
     1f8:	0000a6a4 	.word	0x0000a6a4
     1fc:	0000a716 	.word	0x0000a716

00000200 <TA_InvokeCommandEntryPoint>:
TA_InvokeCommandEntryPoint():
/home/ocean/projects/invisiblecode/invisible-code/optee_qemu/hello_ianni/ta/hello_ianni_ta.c:172
     200:	f84d ed04 	str.w	lr, [sp, #-4]!
     204:	b087      	sub	sp, #28
     206:	9005      	str	r0, [sp, #20]
     208:	9104      	str	r1, [sp, #16]
     20a:	9203      	str	r2, [sp, #12]
     20c:	9302      	str	r3, [sp, #8]
/home/ocean/projects/invisiblecode/invisible-code/optee_qemu/hello_ianni/ta/hello_ianni_ta.c:175
     20e:	9b04      	ldr	r3, [sp, #16]
     210:	2b00      	cmp	r3, #0
     212:	d113      	bne.n	23c <TA_InvokeCommandEntryPoint+0x3c>
/home/ocean/projects/invisiblecode/invisible-code/optee_qemu/hello_ianni/ta/hello_ianni_ta.c:177
     214:	9902      	ldr	r1, [sp, #8]
     216:	9803      	ldr	r0, [sp, #12]
     218:	f7ff ff78 	bl	10c <inc_value>
/home/ocean/projects/invisiblecode/invisible-code/optee_qemu/hello_ianni/ta/hello_ianni_ta.c:178
     21c:	4b0b      	ldr	r3, [pc, #44]	; (24c <TA_InvokeCommandEntryPoint+0x4c>)
     21e:	447b      	add	r3, pc
     220:	9300      	str	r3, [sp, #0]
     222:	f04f 0301 	mov.w	r3, #1
     226:	f04f 0203 	mov.w	r2, #3
     22a:	f04f 01b2 	mov.w	r1, #178	; 0xb2
     22e:	4808      	ldr	r0, [pc, #32]	; (250 <TA_InvokeCommandEntryPoint+0x50>)
     230:	4478      	add	r0, pc
     232:	f005 faf3 	bl	581c <trace_printf>
/home/ocean/projects/invisiblecode/invisible-code/optee_qemu/hello_ianni/ta/hello_ianni_ta.c:179
     236:	f04f 0300 	mov.w	r3, #0
     23a:	e003      	b.n	244 <TA_InvokeCommandEntryPoint+0x44>
/home/ocean/projects/invisiblecode/invisible-code/optee_qemu/hello_ianni/ta/hello_ianni_ta.c:193
     23c:	f04f 0306 	mov.w	r3, #6
     240:	f6cf 73ff 	movt	r3, #65535	; 0xffff
/home/ocean/projects/invisiblecode/invisible-code/optee_qemu/hello_ianni/ta/hello_ianni_ta.c:195
     244:	4618      	mov	r0, r3
     246:	b007      	add	sp, #28
     248:	f85d fb04 	ldr.w	pc, [sp], #4
     24c:	0000a646 	.word	0x0000a646
     250:	0000a6b4 	.word	0x0000a6b4

00000254 <tahead_get_trace_level>:
tahead_get_trace_level():
/home/ocean/projects/invisiblecode/invisible-code/optee_qemu/optee_os/out/arm/export-ta_arm32/src/user_ta_header.c:132
     254:	f04f 0304 	mov.w	r3, #4
/home/ocean/projects/invisiblecode/invisible-code/optee_qemu/optee_os/out/arm/export-ta_arm32/src/user_ta_header.c:133
     258:	4618      	mov	r0, r3
     25a:	4770      	bx	lr

0000025c <ta_header_save_params>:
ta_header_save_params():
/home/ocean/projects/invisiblecode/invisible-code/optee_qemu/optee_os/lib/libutee/arch/arm/user_ta_entry.c:62
     25c:	e96d 7e02 	strd	r7, lr, [sp, #-8]!
     260:	b082      	sub	sp, #8
     262:	af00      	add	r7, sp, #0
     264:	6078      	str	r0, [r7, #4]
     266:	6039      	str	r1, [r7, #0]
/home/ocean/projects/invisiblecode/invisible-code/optee_qemu/optee_os/lib/libutee/arch/arm/user_ta_entry.c:63
     268:	4b0f      	ldr	r3, [pc, #60]	; (2a8 <ta_header_save_params+0x4c>)
     26a:	447b      	add	r3, pc
     26c:	461a      	mov	r2, r3
     26e:	687b      	ldr	r3, [r7, #4]
     270:	6013      	str	r3, [r2, #0]
/home/ocean/projects/invisiblecode/invisible-code/optee_qemu/optee_os/lib/libutee/arch/arm/user_ta_entry.c:65
     272:	683b      	ldr	r3, [r7, #0]
     274:	2b00      	cmp	r3, #0
     276:	d008      	beq.n	28a <ta_header_save_params+0x2e>
/home/ocean/projects/invisiblecode/invisible-code/optee_qemu/optee_os/lib/libutee/arch/arm/user_ta_entry.c:66
     278:	f04f 0220 	mov.w	r2, #32
     27c:	6839      	ldr	r1, [r7, #0]
     27e:	4b0b      	ldr	r3, [pc, #44]	; (2ac <ta_header_save_params+0x50>)
     280:	447b      	add	r3, pc
     282:	4618      	mov	r0, r3
     284:	f004 f86a 	bl	435c <memcpy>
/home/ocean/projects/invisiblecode/invisible-code/optee_qemu/optee_os/lib/libutee/arch/arm/user_ta_entry.c:69
     288:	e008      	b.n	29c <ta_header_save_params+0x40>
/home/ocean/projects/invisiblecode/invisible-code/optee_qemu/optee_os/lib/libutee/arch/arm/user_ta_entry.c:68
     28a:	f04f 0220 	mov.w	r2, #32
     28e:	f04f 0100 	mov.w	r1, #0
     292:	4b07      	ldr	r3, [pc, #28]	; (2b0 <ta_header_save_params+0x54>)
     294:	447b      	add	r3, pc
     296:	4618      	mov	r0, r3
     298:	f004 f97a 	bl	4590 <memset>
/home/ocean/projects/invisiblecode/invisible-code/optee_qemu/optee_os/lib/libutee/arch/arm/user_ta_entry.c:69
     29c:	bf00      	nop
     29e:	f107 0708 	add.w	r7, r7, #8
     2a2:	46bd      	mov	sp, r7
     2a4:	bd80      	pop	{r7, pc}
     2a6:	bf00      	nop
     2a8:	00014e2a 	.word	0x00014e2a
     2ac:	00014e18 	.word	0x00014e18
     2b0:	00014e04 	.word	0x00014e04

000002b4 <ta_header_get_session>:
ta_header_get_session():
/home/ocean/projects/invisiblecode/invisible-code/optee_qemu/optee_os/lib/libutee/arch/arm/user_ta_entry.c:72
     2b4:	f84d 7d04 	str.w	r7, [sp, #-4]!
     2b8:	b085      	sub	sp, #20
     2ba:	af00      	add	r7, sp, #0
     2bc:	6078      	str	r0, [r7, #4]
/home/ocean/projects/invisiblecode/invisible-code/optee_qemu/optee_os/lib/libutee/arch/arm/user_ta_entry.c:75
     2be:	4b0d      	ldr	r3, [pc, #52]	; (2f4 <ta_header_get_session+0x40>)
     2c0:	447b      	add	r3, pc
     2c2:	681b      	ldr	r3, [r3, #0]
     2c4:	60fb      	str	r3, [r7, #12]
     2c6:	e009      	b.n	2dc <ta_header_get_session+0x28>
/home/ocean/projects/invisiblecode/invisible-code/optee_qemu/optee_os/lib/libutee/arch/arm/user_ta_entry.c:76
     2c8:	68fb      	ldr	r3, [r7, #12]
     2ca:	681a      	ldr	r2, [r3, #0]
     2cc:	687b      	ldr	r3, [r7, #4]
     2ce:	429a      	cmp	r2, r3
     2d0:	d101      	bne.n	2d6 <ta_header_get_session+0x22>
/home/ocean/projects/invisiblecode/invisible-code/optee_qemu/optee_os/lib/libutee/arch/arm/user_ta_entry.c:77
     2d2:	68fb      	ldr	r3, [r7, #12]
     2d4:	e007      	b.n	2e6 <ta_header_get_session+0x32>
/home/ocean/projects/invisiblecode/invisible-code/optee_qemu/optee_os/lib/libutee/arch/arm/user_ta_entry.c:75 (discriminator 2)
     2d6:	68fb      	ldr	r3, [r7, #12]
     2d8:	689b      	ldr	r3, [r3, #8]
     2da:	60fb      	str	r3, [r7, #12]
/home/ocean/projects/invisiblecode/invisible-code/optee_qemu/optee_os/lib/libutee/arch/arm/user_ta_entry.c:75 (discriminator 1)
     2dc:	68fb      	ldr	r3, [r7, #12]
     2de:	2b00      	cmp	r3, #0
     2e0:	d1f2      	bne.n	2c8 <ta_header_get_session+0x14>
/home/ocean/projects/invisiblecode/invisible-code/optee_qemu/optee_os/lib/libutee/arch/arm/user_ta_entry.c:79
     2e2:	f04f 0300 	mov.w	r3, #0
/home/ocean/projects/invisiblecode/invisible-code/optee_qemu/optee_os/lib/libutee/arch/arm/user_ta_entry.c:80
     2e6:	4618      	mov	r0, r3
     2e8:	f107 0714 	add.w	r7, r7, #20
     2ec:	46bd      	mov	sp, r7
     2ee:	f85d 7b04 	ldr.w	r7, [sp], #4
     2f2:	4770      	bx	lr
     2f4:	0000cdac 	.word	0x0000cdac

000002f8 <ta_header_add_session>:
ta_header_add_session():
/home/ocean/projects/invisiblecode/invisible-code/optee_qemu/optee_os/lib/libutee/arch/arm/user_ta_entry.c:83
     2f8:	f84d 4d0c 	str.w	r4, [sp, #-12]!
     2fc:	e9cd 7e01 	strd	r7, lr, [sp, #4]
     300:	b085      	sub	sp, #20
     302:	af00      	add	r7, sp, #0
     304:	6078      	str	r0, [r7, #4]
     306:	4c3a      	ldr	r4, [pc, #232]	; (3f0 <ta_header_add_session+0xf8>)
     308:	447c      	add	r4, pc
/home/ocean/projects/invisiblecode/invisible-code/optee_qemu/optee_os/lib/libutee/arch/arm/user_ta_entry.c:84
     30a:	6878      	ldr	r0, [r7, #4]
     30c:	f7ff ffd2 	bl	2b4 <ta_header_get_session>
     310:	60f8      	str	r0, [r7, #12]
/home/ocean/projects/invisiblecode/invisible-code/optee_qemu/optee_os/lib/libutee/arch/arm/user_ta_entry.c:86
     312:	68fb      	ldr	r3, [r7, #12]
     314:	2b00      	cmp	r3, #0
     316:	d002      	beq.n	31e <ta_header_add_session+0x26>
/home/ocean/projects/invisiblecode/invisible-code/optee_qemu/optee_os/lib/libutee/arch/arm/user_ta_entry.c:87
     318:	f04f 0300 	mov.w	r3, #0
     31c:	e05e      	b.n	3dc <ta_header_add_session+0xe4>
/home/ocean/projects/invisiblecode/invisible-code/optee_qemu/optee_os/lib/libutee/arch/arm/user_ta_entry.c:89
     31e:	4b35      	ldr	r3, [pc, #212]	; (3f4 <ta_header_add_session+0xfc>)
     320:	447b      	add	r3, pc
     322:	681b      	ldr	r3, [r3, #0]
     324:	f103 0301 	add.w	r3, r3, #1
     328:	4a33      	ldr	r2, [pc, #204]	; (3f8 <ta_header_add_session+0x100>)
     32a:	447a      	add	r2, pc
     32c:	6013      	str	r3, [r2, #0]
/home/ocean/projects/invisiblecode/invisible-code/optee_qemu/optee_os/lib/libutee/arch/arm/user_ta_entry.c:91
     32e:	4b33      	ldr	r3, [pc, #204]	; (3fc <ta_header_add_session+0x104>)
     330:	447b      	add	r3, pc
     332:	681b      	ldr	r3, [r3, #0]
     334:	2b01      	cmp	r3, #1
     336:	d125      	bne.n	384 <ta_header_add_session+0x8c>
/home/ocean/projects/invisiblecode/invisible-code/optee_qemu/optee_os/lib/libutee/arch/arm/user_ta_entry.c:94
     338:	4b31      	ldr	r3, [pc, #196]	; (400 <ta_header_add_session+0x108>)
     33a:	447b      	add	r3, pc
     33c:	781b      	ldrb	r3, [r3, #0]
     33e:	f083 0301 	eor.w	r3, r3, #1
     342:	b2db      	uxtb	r3, r3
     344:	2b00      	cmp	r3, #0
     346:	d015      	beq.n	374 <ta_header_add_session+0x7c>
/home/ocean/projects/invisiblecode/invisible-code/optee_qemu/optee_os/lib/libutee/arch/arm/user_ta_entry.c:95
     348:	f7ff ff84 	bl	254 <tahead_get_trace_level>
     34c:	4603      	mov	r3, r0
     34e:	4618      	mov	r0, r3
     350:	f005 fa00 	bl	5754 <trace_set_level>
/home/ocean/projects/invisiblecode/invisible-code/optee_qemu/optee_os/lib/libutee/arch/arm/user_ta_entry.c:96
     354:	4b2b      	ldr	r3, [pc, #172]	; (404 <ta_header_add_session+0x10c>)
     356:	58e3      	ldr	r3, [r4, r3]
     358:	681b      	ldr	r3, [r3, #0]
     35a:	4619      	mov	r1, r3
     35c:	4b2a      	ldr	r3, [pc, #168]	; (408 <ta_header_add_session+0x110>)
     35e:	58e3      	ldr	r3, [r4, r3]
     360:	4618      	mov	r0, r3
     362:	f003 fdf3 	bl	3f4c <malloc_add_pool>
/home/ocean/projects/invisiblecode/invisible-code/optee_qemu/optee_os/lib/libutee/arch/arm/user_ta_entry.c:97
     366:	f000 fc9f 	bl	ca8 <_TEE_MathAPI_Init>
/home/ocean/projects/invisiblecode/invisible-code/optee_qemu/optee_os/lib/libutee/arch/arm/user_ta_entry.c:98
     36a:	4b28      	ldr	r3, [pc, #160]	; (40c <ta_header_add_session+0x114>)
     36c:	447b      	add	r3, pc
     36e:	f04f 0201 	mov.w	r2, #1
     372:	701a      	strb	r2, [r3, #0]
/home/ocean/projects/invisiblecode/invisible-code/optee_qemu/optee_os/lib/libutee/arch/arm/user_ta_entry.c:101
     374:	f7ff fe54 	bl	20 <TA_CreateEntryPoint>
     378:	60b8      	str	r0, [r7, #8]
/home/ocean/projects/invisiblecode/invisible-code/optee_qemu/optee_os/lib/libutee/arch/arm/user_ta_entry.c:102
     37a:	68bb      	ldr	r3, [r7, #8]
     37c:	2b00      	cmp	r3, #0
     37e:	d001      	beq.n	384 <ta_header_add_session+0x8c>
/home/ocean/projects/invisiblecode/invisible-code/optee_qemu/optee_os/lib/libutee/arch/arm/user_ta_entry.c:103
     380:	68bb      	ldr	r3, [r7, #8]
     382:	e02b      	b.n	3dc <ta_header_add_session+0xe4>
/home/ocean/projects/invisiblecode/invisible-code/optee_qemu/optee_os/lib/libutee/arch/arm/user_ta_entry.c:106
     384:	f04f 4100 	mov.w	r1, #2147483648	; 0x80000000
     388:	f04f 0010 	mov.w	r0, #16
     38c:	f001 fd9c 	bl	1ec8 <TEE_Malloc>
     390:	60f8      	str	r0, [r7, #12]
/home/ocean/projects/invisiblecode/invisible-code/optee_qemu/optee_os/lib/libutee/arch/arm/user_ta_entry.c:108
     392:	68fb      	ldr	r3, [r7, #12]
     394:	2b00      	cmp	r3, #0
     396:	d104      	bne.n	3a2 <ta_header_add_session+0xaa>
/home/ocean/projects/invisiblecode/invisible-code/optee_qemu/optee_os/lib/libutee/arch/arm/user_ta_entry.c:109
     398:	f04f 030c 	mov.w	r3, #12
     39c:	f6cf 73ff 	movt	r3, #65535	; 0xffff
     3a0:	e01c      	b.n	3dc <ta_header_add_session+0xe4>
/home/ocean/projects/invisiblecode/invisible-code/optee_qemu/optee_os/lib/libutee/arch/arm/user_ta_entry.c:110
     3a2:	68fb      	ldr	r3, [r7, #12]
     3a4:	687a      	ldr	r2, [r7, #4]
     3a6:	601a      	str	r2, [r3, #0]
/home/ocean/projects/invisiblecode/invisible-code/optee_qemu/optee_os/lib/libutee/arch/arm/user_ta_entry.c:111
     3a8:	68fb      	ldr	r3, [r7, #12]
     3aa:	f04f 0200 	mov.w	r2, #0
     3ae:	605a      	str	r2, [r3, #4]
/home/ocean/projects/invisiblecode/invisible-code/optee_qemu/optee_os/lib/libutee/arch/arm/user_ta_entry.c:112
     3b0:	68fb      	ldr	r3, [r7, #12]
     3b2:	f04f 0200 	mov.w	r2, #0
     3b6:	609a      	str	r2, [r3, #8]
     3b8:	4b15      	ldr	r3, [pc, #84]	; (410 <ta_header_add_session+0x118>)
     3ba:	447b      	add	r3, pc
     3bc:	685a      	ldr	r2, [r3, #4]
     3be:	68fb      	ldr	r3, [r7, #12]
     3c0:	60da      	str	r2, [r3, #12]
     3c2:	4b14      	ldr	r3, [pc, #80]	; (414 <ta_header_add_session+0x11c>)
     3c4:	447b      	add	r3, pc
     3c6:	685b      	ldr	r3, [r3, #4]
     3c8:	68fa      	ldr	r2, [r7, #12]
     3ca:	601a      	str	r2, [r3, #0]
     3cc:	68fb      	ldr	r3, [r7, #12]
     3ce:	f103 0308 	add.w	r3, r3, #8
     3d2:	4a11      	ldr	r2, [pc, #68]	; (418 <ta_header_add_session+0x120>)
     3d4:	447a      	add	r2, pc
     3d6:	6053      	str	r3, [r2, #4]
/home/ocean/projects/invisiblecode/invisible-code/optee_qemu/optee_os/lib/libutee/arch/arm/user_ta_entry.c:114
     3d8:	f04f 0300 	mov.w	r3, #0
/home/ocean/projects/invisiblecode/invisible-code/optee_qemu/optee_os/lib/libutee/arch/arm/user_ta_entry.c:115
     3dc:	4618      	mov	r0, r3
     3de:	f107 0714 	add.w	r7, r7, #20
     3e2:	46bd      	mov	sp, r7
     3e4:	e9dd 4700 	ldrd	r4, r7, [sp]
     3e8:	b002      	add	sp, #8
     3ea:	f85d fb04 	ldr.w	pc, [sp], #4
     3ee:	bf00      	nop
     3f0:	0000bdf8 	.word	0x0000bdf8
     3f4:	00014d98 	.word	0x00014d98
     3f8:	00014d8e 	.word	0x00014d8e
     3fc:	00014d88 	.word	0x00014d88
     400:	00014d82 	.word	0x00014d82
     404:	0000000c 	.word	0x0000000c
     408:	00000020 	.word	0x00000020
     40c:	00014d50 	.word	0x00014d50
     410:	0000ccb2 	.word	0x0000ccb2
     414:	0000cca8 	.word	0x0000cca8
     418:	0000cc98 	.word	0x0000cc98

0000041c <ta_header_remove_session>:
ta_header_remove_session():
/home/ocean/projects/invisiblecode/invisible-code/optee_qemu/optee_os/lib/libutee/arch/arm/user_ta_entry.c:118
     41c:	e96d 7e02 	strd	r7, lr, [sp, #-8]!
     420:	b084      	sub	sp, #16
     422:	af00      	add	r7, sp, #0
     424:	6078      	str	r0, [r7, #4]
/home/ocean/projects/invisiblecode/invisible-code/optee_qemu/optee_os/lib/libutee/arch/arm/user_ta_entry.c:121
     426:	4b1e      	ldr	r3, [pc, #120]	; (4a0 <ta_header_remove_session+0x84>)
     428:	447b      	add	r3, pc
     42a:	681b      	ldr	r3, [r3, #0]
     42c:	60fb      	str	r3, [r7, #12]
     42e:	e02e      	b.n	48e <ta_header_remove_session+0x72>
/home/ocean/projects/invisiblecode/invisible-code/optee_qemu/optee_os/lib/libutee/arch/arm/user_ta_entry.c:122
     430:	68fb      	ldr	r3, [r7, #12]
     432:	681a      	ldr	r2, [r3, #0]
     434:	687b      	ldr	r3, [r7, #4]
     436:	429a      	cmp	r2, r3
     438:	d126      	bne.n	488 <ta_header_remove_session+0x6c>
/home/ocean/projects/invisiblecode/invisible-code/optee_qemu/optee_os/lib/libutee/arch/arm/user_ta_entry.c:123
     43a:	68fb      	ldr	r3, [r7, #12]
     43c:	689b      	ldr	r3, [r3, #8]
     43e:	2b00      	cmp	r3, #0
     440:	d005      	beq.n	44e <ta_header_remove_session+0x32>
/home/ocean/projects/invisiblecode/invisible-code/optee_qemu/optee_os/lib/libutee/arch/arm/user_ta_entry.c:123 (discriminator 1)
     442:	68fb      	ldr	r3, [r7, #12]
     444:	689b      	ldr	r3, [r3, #8]
     446:	68fa      	ldr	r2, [r7, #12]
     448:	68d2      	ldr	r2, [r2, #12]
     44a:	60da      	str	r2, [r3, #12]
     44c:	e004      	b.n	458 <ta_header_remove_session+0x3c>
/home/ocean/projects/invisiblecode/invisible-code/optee_qemu/optee_os/lib/libutee/arch/arm/user_ta_entry.c:123 (discriminator 2)
     44e:	68fb      	ldr	r3, [r7, #12]
     450:	68db      	ldr	r3, [r3, #12]
     452:	4a14      	ldr	r2, [pc, #80]	; (4a4 <ta_header_remove_session+0x88>)
     454:	447a      	add	r2, pc
     456:	6053      	str	r3, [r2, #4]
/home/ocean/projects/invisiblecode/invisible-code/optee_qemu/optee_os/lib/libutee/arch/arm/user_ta_entry.c:123 (discriminator 4)
     458:	68fb      	ldr	r3, [r7, #12]
     45a:	68db      	ldr	r3, [r3, #12]
     45c:	68fa      	ldr	r2, [r7, #12]
     45e:	6892      	ldr	r2, [r2, #8]
     460:	601a      	str	r2, [r3, #0]
/home/ocean/projects/invisiblecode/invisible-code/optee_qemu/optee_os/lib/libutee/arch/arm/user_ta_entry.c:124 (discriminator 4)
     462:	68f8      	ldr	r0, [r7, #12]
     464:	f001 fd50 	bl	1f08 <TEE_Free>
/home/ocean/projects/invisiblecode/invisible-code/optee_qemu/optee_os/lib/libutee/arch/arm/user_ta_entry.c:126 (discriminator 4)
     468:	4b0f      	ldr	r3, [pc, #60]	; (4a8 <ta_header_remove_session+0x8c>)
     46a:	447b      	add	r3, pc
     46c:	681b      	ldr	r3, [r3, #0]
     46e:	f103 33ff 	add.w	r3, r3, #4294967295	; 0xffffffff
     472:	4a0e      	ldr	r2, [pc, #56]	; (4ac <ta_header_remove_session+0x90>)
     474:	447a      	add	r2, pc
     476:	6013      	str	r3, [r2, #0]
/home/ocean/projects/invisiblecode/invisible-code/optee_qemu/optee_os/lib/libutee/arch/arm/user_ta_entry.c:127 (discriminator 4)
     478:	4b0d      	ldr	r3, [pc, #52]	; (4b0 <ta_header_remove_session+0x94>)
     47a:	447b      	add	r3, pc
     47c:	681b      	ldr	r3, [r3, #0]
     47e:	2b00      	cmp	r3, #0
     480:	d109      	bne.n	496 <ta_header_remove_session+0x7a>
/home/ocean/projects/invisiblecode/invisible-code/optee_qemu/optee_os/lib/libutee/arch/arm/user_ta_entry.c:128
     482:	f7ff fde7 	bl	54 <TA_DestroyEntryPoint>
/home/ocean/projects/invisiblecode/invisible-code/optee_qemu/optee_os/lib/libutee/arch/arm/user_ta_entry.c:130
     486:	e006      	b.n	496 <ta_header_remove_session+0x7a>
/home/ocean/projects/invisiblecode/invisible-code/optee_qemu/optee_os/lib/libutee/arch/arm/user_ta_entry.c:121 (discriminator 2)
     488:	68fb      	ldr	r3, [r7, #12]
     48a:	689b      	ldr	r3, [r3, #8]
     48c:	60fb      	str	r3, [r7, #12]
/home/ocean/projects/invisiblecode/invisible-code/optee_qemu/optee_os/lib/libutee/arch/arm/user_ta_entry.c:121 (discriminator 1)
     48e:	68fb      	ldr	r3, [r7, #12]
     490:	2b00      	cmp	r3, #0
     492:	d1cd      	bne.n	430 <ta_header_remove_session+0x14>
     494:	e000      	b.n	498 <ta_header_remove_session+0x7c>
/home/ocean/projects/invisiblecode/invisible-code/optee_qemu/optee_os/lib/libutee/arch/arm/user_ta_entry.c:130
     496:	bf00      	nop
/home/ocean/projects/invisiblecode/invisible-code/optee_qemu/optee_os/lib/libutee/arch/arm/user_ta_entry.c:133
     498:	f107 0710 	add.w	r7, r7, #16
     49c:	46bd      	mov	sp, r7
     49e:	bd80      	pop	{r7, pc}
     4a0:	0000cc44 	.word	0x0000cc44
     4a4:	0000cc18 	.word	0x0000cc18
     4a8:	00014c4e 	.word	0x00014c4e
     4ac:	00014c44 	.word	0x00014c44
     4b0:	00014c3e 	.word	0x00014c3e

000004b4 <entry_open_session>:
entry_open_session():
/home/ocean/projects/invisiblecode/invisible-code/optee_qemu/optee_os/lib/libutee/arch/arm/user_ta_entry.c:137
     4b4:	e96d 7e02 	strd	r7, lr, [sp, #-8]!
     4b8:	b08e      	sub	sp, #56	; 0x38
     4ba:	af00      	add	r7, sp, #0
     4bc:	6078      	str	r0, [r7, #4]
     4be:	6039      	str	r1, [r7, #0]
/home/ocean/projects/invisiblecode/invisible-code/optee_qemu/optee_os/lib/libutee/arch/arm/user_ta_entry.c:143
     4c0:	6878      	ldr	r0, [r7, #4]
     4c2:	f7ff ff19 	bl	2f8 <ta_header_add_session>
     4c6:	6378      	str	r0, [r7, #52]	; 0x34
/home/ocean/projects/invisiblecode/invisible-code/optee_qemu/optee_os/lib/libutee/arch/arm/user_ta_entry.c:144
     4c8:	6b7b      	ldr	r3, [r7, #52]	; 0x34
     4ca:	2b00      	cmp	r3, #0
     4cc:	d001      	beq.n	4d2 <entry_open_session+0x1e>
/home/ocean/projects/invisiblecode/invisible-code/optee_qemu/optee_os/lib/libutee/arch/arm/user_ta_entry.c:145
     4ce:	6b7b      	ldr	r3, [r7, #52]	; 0x34
     4d0:	e032      	b.n	538 <entry_open_session+0x84>
/home/ocean/projects/invisiblecode/invisible-code/optee_qemu/optee_os/lib/libutee/arch/arm/user_ta_entry.c:147
     4d2:	6878      	ldr	r0, [r7, #4]
     4d4:	f7ff feee 	bl	2b4 <ta_header_get_session>
     4d8:	6338      	str	r0, [r7, #48]	; 0x30
/home/ocean/projects/invisiblecode/invisible-code/optee_qemu/optee_os/lib/libutee/arch/arm/user_ta_entry.c:148
     4da:	6b3b      	ldr	r3, [r7, #48]	; 0x30
     4dc:	2b00      	cmp	r3, #0
     4de:	d104      	bne.n	4ea <entry_open_session+0x36>
/home/ocean/projects/invisiblecode/invisible-code/optee_qemu/optee_os/lib/libutee/arch/arm/user_ta_entry.c:149
     4e0:	f04f 0307 	mov.w	r3, #7
     4e4:	f6cf 73ff 	movt	r3, #65535	; 0xffff
     4e8:	e026      	b.n	538 <entry_open_session+0x84>
/home/ocean/projects/invisiblecode/invisible-code/optee_qemu/optee_os/lib/libutee/arch/arm/user_ta_entry.c:151
     4ea:	f107 012c 	add.w	r1, r7, #44	; 0x2c
     4ee:	f107 030c 	add.w	r3, r7, #12
     4f2:	683a      	ldr	r2, [r7, #0]
     4f4:	4618      	mov	r0, r3
     4f6:	f001 f9a9 	bl	184c <__utee_to_param>
/home/ocean/projects/invisiblecode/invisible-code/optee_qemu/optee_os/lib/libutee/arch/arm/user_ta_entry.c:152
     4fa:	6afb      	ldr	r3, [r7, #44]	; 0x2c
     4fc:	f107 020c 	add.w	r2, r7, #12
     500:	4611      	mov	r1, r2
     502:	4618      	mov	r0, r3
     504:	f7ff feaa 	bl	25c <ta_header_save_params>
/home/ocean/projects/invisiblecode/invisible-code/optee_qemu/optee_os/lib/libutee/arch/arm/user_ta_entry.c:154
     508:	6af8      	ldr	r0, [r7, #44]	; 0x2c
     50a:	6b3b      	ldr	r3, [r7, #48]	; 0x30
     50c:	f103 0204 	add.w	r2, r3, #4
     510:	f107 030c 	add.w	r3, r7, #12
     514:	4619      	mov	r1, r3
     516:	f7ff fdb5 	bl	84 <TA_OpenSessionEntryPoint>
     51a:	6378      	str	r0, [r7, #52]	; 0x34
/home/ocean/projects/invisiblecode/invisible-code/optee_qemu/optee_os/lib/libutee/arch/arm/user_ta_entry.c:157
     51c:	6afb      	ldr	r3, [r7, #44]	; 0x2c
     51e:	f107 020c 	add.w	r2, r7, #12
     522:	4619      	mov	r1, r3
     524:	6838      	ldr	r0, [r7, #0]
     526:	f001 f8dd 	bl	16e4 <__utee_from_param>
/home/ocean/projects/invisiblecode/invisible-code/optee_qemu/optee_os/lib/libutee/arch/arm/user_ta_entry.c:159
     52a:	6b7b      	ldr	r3, [r7, #52]	; 0x34
     52c:	2b00      	cmp	r3, #0
     52e:	d002      	beq.n	536 <entry_open_session+0x82>
/home/ocean/projects/invisiblecode/invisible-code/optee_qemu/optee_os/lib/libutee/arch/arm/user_ta_entry.c:160
     530:	6878      	ldr	r0, [r7, #4]
     532:	f7ff ff73 	bl	41c <ta_header_remove_session>
/home/ocean/projects/invisiblecode/invisible-code/optee_qemu/optee_os/lib/libutee/arch/arm/user_ta_entry.c:161
     536:	6b7b      	ldr	r3, [r7, #52]	; 0x34
/home/ocean/projects/invisiblecode/invisible-code/optee_qemu/optee_os/lib/libutee/arch/arm/user_ta_entry.c:162 (discriminator 1)
     538:	4618      	mov	r0, r3
     53a:	f107 0738 	add.w	r7, r7, #56	; 0x38
     53e:	46bd      	mov	sp, r7
     540:	bd80      	pop	{r7, pc}
     542:	bf00      	nop

00000544 <entry_close_session>:
entry_close_session():
/home/ocean/projects/invisiblecode/invisible-code/optee_qemu/optee_os/lib/libutee/arch/arm/user_ta_entry.c:165
     544:	e96d 7e02 	strd	r7, lr, [sp, #-8]!
     548:	b084      	sub	sp, #16
     54a:	af00      	add	r7, sp, #0
     54c:	6078      	str	r0, [r7, #4]
/home/ocean/projects/invisiblecode/invisible-code/optee_qemu/optee_os/lib/libutee/arch/arm/user_ta_entry.c:166
     54e:	6878      	ldr	r0, [r7, #4]
     550:	f7ff feb0 	bl	2b4 <ta_header_get_session>
     554:	60f8      	str	r0, [r7, #12]
/home/ocean/projects/invisiblecode/invisible-code/optee_qemu/optee_os/lib/libutee/arch/arm/user_ta_entry.c:168
     556:	68fb      	ldr	r3, [r7, #12]
     558:	2b00      	cmp	r3, #0
     55a:	d104      	bne.n	566 <entry_close_session+0x22>
/home/ocean/projects/invisiblecode/invisible-code/optee_qemu/optee_os/lib/libutee/arch/arm/user_ta_entry.c:169
     55c:	f04f 0307 	mov.w	r3, #7
     560:	f6cf 73ff 	movt	r3, #65535	; 0xffff
     564:	e009      	b.n	57a <entry_close_session+0x36>
/home/ocean/projects/invisiblecode/invisible-code/optee_qemu/optee_os/lib/libutee/arch/arm/user_ta_entry.c:171
     566:	68fb      	ldr	r3, [r7, #12]
     568:	685b      	ldr	r3, [r3, #4]
     56a:	4618      	mov	r0, r3
     56c:	f7ff fdb4 	bl	d8 <TA_CloseSessionEntryPoint>
/home/ocean/projects/invisiblecode/invisible-code/optee_qemu/optee_os/lib/libutee/arch/arm/user_ta_entry.c:173
     570:	6878      	ldr	r0, [r7, #4]
     572:	f7ff ff53 	bl	41c <ta_header_remove_session>
/home/ocean/projects/invisiblecode/invisible-code/optee_qemu/optee_os/lib/libutee/arch/arm/user_ta_entry.c:174
     576:	f04f 0300 	mov.w	r3, #0
/home/ocean/projects/invisiblecode/invisible-code/optee_qemu/optee_os/lib/libutee/arch/arm/user_ta_entry.c:175
     57a:	4618      	mov	r0, r3
     57c:	f107 0710 	add.w	r7, r7, #16
     580:	46bd      	mov	sp, r7
     582:	bd80      	pop	{r7, pc}

00000584 <entry_invoke_command>:
entry_invoke_command():
/home/ocean/projects/invisiblecode/invisible-code/optee_qemu/optee_os/lib/libutee/arch/arm/user_ta_entry.c:179
     584:	e96d 7e02 	strd	r7, lr, [sp, #-8]!
     588:	b090      	sub	sp, #64	; 0x40
     58a:	af00      	add	r7, sp, #0
     58c:	60f8      	str	r0, [r7, #12]
     58e:	60b9      	str	r1, [r7, #8]
     590:	607a      	str	r2, [r7, #4]
/home/ocean/projects/invisiblecode/invisible-code/optee_qemu/optee_os/lib/libutee/arch/arm/user_ta_entry.c:183
     592:	68f8      	ldr	r0, [r7, #12]
     594:	f7ff fe8e 	bl	2b4 <ta_header_get_session>
     598:	63f8      	str	r0, [r7, #60]	; 0x3c
/home/ocean/projects/invisiblecode/invisible-code/optee_qemu/optee_os/lib/libutee/arch/arm/user_ta_entry.c:185
     59a:	6bfb      	ldr	r3, [r7, #60]	; 0x3c
     59c:	2b00      	cmp	r3, #0
     59e:	d104      	bne.n	5aa <entry_invoke_command+0x26>
/home/ocean/projects/invisiblecode/invisible-code/optee_qemu/optee_os/lib/libutee/arch/arm/user_ta_entry.c:186
     5a0:	f04f 0307 	mov.w	r3, #7
     5a4:	f6cf 73ff 	movt	r3, #65535	; 0xffff
     5a8:	e01f      	b.n	5ea <entry_invoke_command+0x66>
/home/ocean/projects/invisiblecode/invisible-code/optee_qemu/optee_os/lib/libutee/arch/arm/user_ta_entry.c:188
     5aa:	f107 0134 	add.w	r1, r7, #52	; 0x34
     5ae:	f107 0314 	add.w	r3, r7, #20
     5b2:	68ba      	ldr	r2, [r7, #8]
     5b4:	4618      	mov	r0, r3
     5b6:	f001 f949 	bl	184c <__utee_to_param>
/home/ocean/projects/invisiblecode/invisible-code/optee_qemu/optee_os/lib/libutee/arch/arm/user_ta_entry.c:189
     5ba:	6b7b      	ldr	r3, [r7, #52]	; 0x34
     5bc:	f107 0214 	add.w	r2, r7, #20
     5c0:	4611      	mov	r1, r2
     5c2:	4618      	mov	r0, r3
     5c4:	f7ff fe4a 	bl	25c <ta_header_save_params>
/home/ocean/projects/invisiblecode/invisible-code/optee_qemu/optee_os/lib/libutee/arch/arm/user_ta_entry.c:191
     5c8:	6bfb      	ldr	r3, [r7, #60]	; 0x3c
     5ca:	6858      	ldr	r0, [r3, #4]
     5cc:	6b7a      	ldr	r2, [r7, #52]	; 0x34
     5ce:	f107 0314 	add.w	r3, r7, #20
     5d2:	6879      	ldr	r1, [r7, #4]
     5d4:	f7ff fe14 	bl	200 <TA_InvokeCommandEntryPoint>
     5d8:	63b8      	str	r0, [r7, #56]	; 0x38
/home/ocean/projects/invisiblecode/invisible-code/optee_qemu/optee_os/lib/libutee/arch/arm/user_ta_entry.c:194
     5da:	6b7b      	ldr	r3, [r7, #52]	; 0x34
     5dc:	f107 0214 	add.w	r2, r7, #20
     5e0:	4619      	mov	r1, r3
     5e2:	68b8      	ldr	r0, [r7, #8]
     5e4:	f001 f87e 	bl	16e4 <__utee_from_param>
/home/ocean/projects/invisiblecode/invisible-code/optee_qemu/optee_os/lib/libutee/arch/arm/user_ta_entry.c:195
     5e8:	6bbb      	ldr	r3, [r7, #56]	; 0x38
/home/ocean/projects/invisiblecode/invisible-code/optee_qemu/optee_os/lib/libutee/arch/arm/user_ta_entry.c:196 (discriminator 1)
     5ea:	4618      	mov	r0, r3
     5ec:	f107 0740 	add.w	r7, r7, #64	; 0x40
     5f0:	46bd      	mov	sp, r7
     5f2:	bd80      	pop	{r7, pc}

000005f4 <__utee_entry>:
__utee_entry():
/home/ocean/projects/invisiblecode/invisible-code/optee_qemu/optee_os/lib/libutee/arch/arm/user_ta_entry.c:200
     5f4:	e96d 7e02 	strd	r7, lr, [sp, #-8]!
     5f8:	b088      	sub	sp, #32
     5fa:	af02      	add	r7, sp, #8
     5fc:	60f8      	str	r0, [r7, #12]
     5fe:	60b9      	str	r1, [r7, #8]
     600:	607a      	str	r2, [r7, #4]
     602:	603b      	str	r3, [r7, #0]
/home/ocean/projects/invisiblecode/invisible-code/optee_qemu/optee_os/lib/libutee/arch/arm/user_ta_entry.c:203
     604:	68fb      	ldr	r3, [r7, #12]
     606:	2b01      	cmp	r3, #1
     608:	d00a      	beq.n	620 <__utee_entry+0x2c>
     60a:	2b01      	cmp	r3, #1
     60c:	d302      	bcc.n	614 <__utee_entry+0x20>
     60e:	2b02      	cmp	r3, #2
     610:	d00b      	beq.n	62a <__utee_entry+0x36>
     612:	e011      	b.n	638 <__utee_entry+0x44>
/home/ocean/projects/invisiblecode/invisible-code/optee_qemu/optee_os/lib/libutee/arch/arm/user_ta_entry.c:205
     614:	6879      	ldr	r1, [r7, #4]
     616:	68b8      	ldr	r0, [r7, #8]
     618:	f7ff ff4c 	bl	4b4 <entry_open_session>
     61c:	6178      	str	r0, [r7, #20]
/home/ocean/projects/invisiblecode/invisible-code/optee_qemu/optee_os/lib/libutee/arch/arm/user_ta_entry.c:206
     61e:	e023      	b.n	668 <__utee_entry+0x74>
/home/ocean/projects/invisiblecode/invisible-code/optee_qemu/optee_os/lib/libutee/arch/arm/user_ta_entry.c:208
     620:	68b8      	ldr	r0, [r7, #8]
     622:	f7ff ff8f 	bl	544 <entry_close_session>
     626:	6178      	str	r0, [r7, #20]
/home/ocean/projects/invisiblecode/invisible-code/optee_qemu/optee_os/lib/libutee/arch/arm/user_ta_entry.c:209
     628:	e01e      	b.n	668 <__utee_entry+0x74>
/home/ocean/projects/invisiblecode/invisible-code/optee_qemu/optee_os/lib/libutee/arch/arm/user_ta_entry.c:211
     62a:	683a      	ldr	r2, [r7, #0]
     62c:	6879      	ldr	r1, [r7, #4]
     62e:	68b8      	ldr	r0, [r7, #8]
     630:	f7ff ffa8 	bl	584 <entry_invoke_command>
     634:	6178      	str	r0, [r7, #20]
/home/ocean/projects/invisiblecode/invisible-code/optee_qemu/optee_os/lib/libutee/arch/arm/user_ta_entry.c:212
     636:	e017      	b.n	668 <__utee_entry+0x74>
/home/ocean/projects/invisiblecode/invisible-code/optee_qemu/optee_os/lib/libutee/arch/arm/user_ta_entry.c:214
     638:	f04f 33ff 	mov.w	r3, #4294967295	; 0xffffffff
     63c:	617b      	str	r3, [r7, #20]
/home/ocean/projects/invisiblecode/invisible-code/optee_qemu/optee_os/lib/libutee/arch/arm/user_ta_entry.c:215
     63e:	f04f 0300 	mov.w	r3, #0
     642:	9301      	str	r3, [sp, #4]
     644:	4b0d      	ldr	r3, [pc, #52]	; (67c <__utee_entry+0x88>)
     646:	447b      	add	r3, pc
     648:	9300      	str	r3, [sp, #0]
     64a:	f04f 0301 	mov.w	r3, #1
     64e:	f04f 0201 	mov.w	r2, #1
     652:	f04f 01d7 	mov.w	r1, #215	; 0xd7
     656:	480a      	ldr	r0, [pc, #40]	; (680 <__utee_entry+0x8c>)
     658:	4478      	add	r0, pc
     65a:	f005 f8df 	bl	581c <trace_printf>
     65e:	f04f 0000 	mov.w	r0, #0
     662:	f001 fc95 	bl	1f90 <__TEE_Panic>
/home/ocean/projects/invisiblecode/invisible-code/optee_qemu/optee_os/lib/libutee/arch/arm/user_ta_entry.c:216
     666:	bf00      	nop
/home/ocean/projects/invisiblecode/invisible-code/optee_qemu/optee_os/lib/libutee/arch/arm/user_ta_entry.c:218
     668:	f04f 0100 	mov.w	r1, #0
     66c:	f04f 0000 	mov.w	r0, #0
     670:	f7ff fdf4 	bl	25c <ta_header_save_params>
/home/ocean/projects/invisiblecode/invisible-code/optee_qemu/optee_os/lib/libutee/arch/arm/user_ta_entry.c:219
     674:	6978      	ldr	r0, [r7, #20]
     676:	f000 e806 	blx	684 <utee_return>
     67a:	bf00      	nop
     67c:	0000a3ca 	.word	0x0000a3ca
     680:	0000a3c4 	.word	0x0000a3c4

00000684 <utee_return>:
utee_return():
     684:	e92d40e0 	push	{r5, r6, r7, lr}
     688:	e3a07000 	mov	r7, #0
     68c:	e3a06000 	mov	r6, #0
     690:	ef000000 	svc	0x00000000
     694:	e8bd80e0 	pop	{r5, r6, r7, pc}

00000698 <utee_log>:
utee_log():
     698:	e92d40e0 	push	{r5, r6, r7, lr}
     69c:	e3a07001 	mov	r7, #1
     6a0:	e3a06000 	mov	r6, #0
     6a4:	ef000000 	svc	0x00000000
     6a8:	e8bd80e0 	pop	{r5, r6, r7, pc}

000006ac <utee_panic>:
utee_panic():
     6ac:	e92d40e0 	push	{r5, r6, r7, lr}
     6b0:	e3a07002 	mov	r7, #2
     6b4:	e3a06000 	mov	r6, #0
     6b8:	ef000000 	svc	0x00000000
     6bc:	e8bd80e0 	pop	{r5, r6, r7, pc}

000006c0 <utee_get_property>:
utee_get_property():
     6c0:	e92d40e0 	push	{r5, r6, r7, lr}
     6c4:	e3a07003 	mov	r7, #3
     6c8:	e3a06003 	mov	r6, #3
     6cc:	e28d5010 	add	r5, sp, #16
     6d0:	ef000000 	svc	0x00000000
     6d4:	e8bd80e0 	pop	{r5, r6, r7, pc}

000006d8 <utee_get_property_name_to_index>:
utee_get_property_name_to_index():
     6d8:	e92d40e0 	push	{r5, r6, r7, lr}
     6dc:	e3a07004 	mov	r7, #4
     6e0:	e3a06000 	mov	r6, #0
     6e4:	ef000000 	svc	0x00000000
     6e8:	e8bd80e0 	pop	{r5, r6, r7, pc}

000006ec <utee_open_ta_session>:
utee_open_ta_session():
     6ec:	e92d40e0 	push	{r5, r6, r7, lr}
     6f0:	e3a07005 	mov	r7, #5
     6f4:	e3a06001 	mov	r6, #1
     6f8:	e28d5010 	add	r5, sp, #16
     6fc:	ef000000 	svc	0x00000000
     700:	e8bd80e0 	pop	{r5, r6, r7, pc}

00000704 <utee_close_ta_session>:
utee_close_ta_session():
     704:	e92d40e0 	push	{r5, r6, r7, lr}
     708:	e3a07006 	mov	r7, #6
     70c:	e3a06000 	mov	r6, #0
     710:	ef000000 	svc	0x00000000
     714:	e8bd80e0 	pop	{r5, r6, r7, pc}

00000718 <utee_invoke_ta_command>:
utee_invoke_ta_command():
     718:	e92d40e0 	push	{r5, r6, r7, lr}
     71c:	e3a07007 	mov	r7, #7
     720:	e3a06001 	mov	r6, #1
     724:	e28d5010 	add	r5, sp, #16
     728:	ef000000 	svc	0x00000000
     72c:	e8bd80e0 	pop	{r5, r6, r7, pc}

00000730 <utee_get_cancellation_flag>:
utee_get_cancellation_flag():
     730:	e92d40e0 	push	{r5, r6, r7, lr}
     734:	e3a07009 	mov	r7, #9
     738:	e3a06000 	mov	r6, #0
     73c:	ef000000 	svc	0x00000000
     740:	e8bd80e0 	pop	{r5, r6, r7, pc}

00000744 <utee_check_access_rights>:
utee_check_access_rights():
     744:	e92d40e0 	push	{r5, r6, r7, lr}
     748:	e3a07008 	mov	r7, #8
     74c:	e3a06000 	mov	r6, #0
     750:	ef000000 	svc	0x00000000
     754:	e8bd80e0 	pop	{r5, r6, r7, pc}

00000758 <utee_unmask_cancellation>:
utee_unmask_cancellation():
     758:	e92d40e0 	push	{r5, r6, r7, lr}
     75c:	e3a0700a 	mov	r7, #10
     760:	e3a06000 	mov	r6, #0
     764:	ef000000 	svc	0x00000000
     768:	e8bd80e0 	pop	{r5, r6, r7, pc}

0000076c <utee_mask_cancellation>:
utee_mask_cancellation():
     76c:	e92d40e0 	push	{r5, r6, r7, lr}
     770:	e3a0700b 	mov	r7, #11
     774:	e3a06000 	mov	r6, #0
     778:	ef000000 	svc	0x00000000
     77c:	e8bd80e0 	pop	{r5, r6, r7, pc}

00000780 <utee_wait>:
utee_wait():
     780:	e92d40e0 	push	{r5, r6, r7, lr}
     784:	e3a0700c 	mov	r7, #12
     788:	e3a06000 	mov	r6, #0
     78c:	ef000000 	svc	0x00000000
     790:	e8bd80e0 	pop	{r5, r6, r7, pc}

00000794 <utee_get_time>:
utee_get_time():
     794:	e92d40e0 	push	{r5, r6, r7, lr}
     798:	e3a0700d 	mov	r7, #13
     79c:	e3a06000 	mov	r6, #0
     7a0:	ef000000 	svc	0x00000000
     7a4:	e8bd80e0 	pop	{r5, r6, r7, pc}

000007a8 <utee_set_ta_time>:
utee_set_ta_time():
     7a8:	e92d40e0 	push	{r5, r6, r7, lr}
     7ac:	e3a0700e 	mov	r7, #14
     7b0:	e3a06000 	mov	r6, #0
     7b4:	ef000000 	svc	0x00000000
     7b8:	e8bd80e0 	pop	{r5, r6, r7, pc}

000007bc <utee_cryp_state_alloc>:
utee_cryp_state_alloc():
     7bc:	e92d40e0 	push	{r5, r6, r7, lr}
     7c0:	e3a0700f 	mov	r7, #15
     7c4:	e3a06001 	mov	r6, #1
     7c8:	e28d5010 	add	r5, sp, #16
     7cc:	ef000000 	svc	0x00000000
     7d0:	e8bd80e0 	pop	{r5, r6, r7, pc}

000007d4 <utee_cryp_state_copy>:
utee_cryp_state_copy():
     7d4:	e92d40e0 	push	{r5, r6, r7, lr}
     7d8:	e3a07010 	mov	r7, #16
     7dc:	e3a06000 	mov	r6, #0
     7e0:	ef000000 	svc	0x00000000
     7e4:	e8bd80e0 	pop	{r5, r6, r7, pc}

000007e8 <utee_cryp_state_free>:
utee_cryp_state_free():
     7e8:	e92d40e0 	push	{r5, r6, r7, lr}
     7ec:	e3a07011 	mov	r7, #17
     7f0:	e3a06000 	mov	r6, #0
     7f4:	ef000000 	svc	0x00000000
     7f8:	e8bd80e0 	pop	{r5, r6, r7, pc}

000007fc <utee_hash_init>:
utee_hash_init():
     7fc:	e92d40e0 	push	{r5, r6, r7, lr}
     800:	e3a07012 	mov	r7, #18
     804:	e3a06000 	mov	r6, #0
     808:	ef000000 	svc	0x00000000
     80c:	e8bd80e0 	pop	{r5, r6, r7, pc}

00000810 <utee_hash_update>:
utee_hash_update():
     810:	e92d40e0 	push	{r5, r6, r7, lr}
     814:	e3a07013 	mov	r7, #19
     818:	e3a06000 	mov	r6, #0
     81c:	ef000000 	svc	0x00000000
     820:	e8bd80e0 	pop	{r5, r6, r7, pc}

00000824 <utee_hash_final>:
utee_hash_final():
     824:	e92d40e0 	push	{r5, r6, r7, lr}
     828:	e3a07014 	mov	r7, #20
     82c:	e3a06001 	mov	r6, #1
     830:	e28d5010 	add	r5, sp, #16
     834:	ef000000 	svc	0x00000000
     838:	e8bd80e0 	pop	{r5, r6, r7, pc}

0000083c <utee_cipher_init>:
utee_cipher_init():
     83c:	e92d40e0 	push	{r5, r6, r7, lr}
     840:	e3a07015 	mov	r7, #21
     844:	e3a06000 	mov	r6, #0
     848:	ef000000 	svc	0x00000000
     84c:	e8bd80e0 	pop	{r5, r6, r7, pc}

00000850 <utee_cipher_update>:
utee_cipher_update():
     850:	e92d40e0 	push	{r5, r6, r7, lr}
     854:	e3a07016 	mov	r7, #22
     858:	e3a06001 	mov	r6, #1
     85c:	e28d5010 	add	r5, sp, #16
     860:	ef000000 	svc	0x00000000
     864:	e8bd80e0 	pop	{r5, r6, r7, pc}

00000868 <utee_cipher_final>:
utee_cipher_final():
     868:	e92d40e0 	push	{r5, r6, r7, lr}
     86c:	e3a07017 	mov	r7, #23
     870:	e3a06001 	mov	r6, #1
     874:	e28d5010 	add	r5, sp, #16
     878:	ef000000 	svc	0x00000000
     87c:	e8bd80e0 	pop	{r5, r6, r7, pc}

00000880 <utee_cryp_obj_get_info>:
utee_cryp_obj_get_info():
     880:	e92d40e0 	push	{r5, r6, r7, lr}
     884:	e3a07018 	mov	r7, #24
     888:	e3a06000 	mov	r6, #0
     88c:	ef000000 	svc	0x00000000
     890:	e8bd80e0 	pop	{r5, r6, r7, pc}

00000894 <utee_cryp_obj_restrict_usage>:
utee_cryp_obj_restrict_usage():
     894:	e92d40e0 	push	{r5, r6, r7, lr}
     898:	e3a07019 	mov	r7, #25
     89c:	e3a06000 	mov	r6, #0
     8a0:	ef000000 	svc	0x00000000
     8a4:	e8bd80e0 	pop	{r5, r6, r7, pc}

000008a8 <utee_cryp_obj_get_attr>:
utee_cryp_obj_get_attr():
     8a8:	e92d40e0 	push	{r5, r6, r7, lr}
     8ac:	e3a0701a 	mov	r7, #26
     8b0:	e3a06000 	mov	r6, #0
     8b4:	ef000000 	svc	0x00000000
     8b8:	e8bd80e0 	pop	{r5, r6, r7, pc}

000008bc <utee_cryp_obj_alloc>:
utee_cryp_obj_alloc():
     8bc:	e92d40e0 	push	{r5, r6, r7, lr}
     8c0:	e3a0701b 	mov	r7, #27
     8c4:	e3a06000 	mov	r6, #0
     8c8:	ef000000 	svc	0x00000000
     8cc:	e8bd80e0 	pop	{r5, r6, r7, pc}

000008d0 <utee_cryp_obj_close>:
utee_cryp_obj_close():
     8d0:	e92d40e0 	push	{r5, r6, r7, lr}
     8d4:	e3a0701c 	mov	r7, #28
     8d8:	e3a06000 	mov	r6, #0
     8dc:	ef000000 	svc	0x00000000
     8e0:	e8bd80e0 	pop	{r5, r6, r7, pc}

000008e4 <utee_cryp_obj_reset>:
utee_cryp_obj_reset():
     8e4:	e92d40e0 	push	{r5, r6, r7, lr}
     8e8:	e3a0701d 	mov	r7, #29
     8ec:	e3a06000 	mov	r6, #0
     8f0:	ef000000 	svc	0x00000000
     8f4:	e8bd80e0 	pop	{r5, r6, r7, pc}

000008f8 <utee_cryp_obj_populate>:
utee_cryp_obj_populate():
     8f8:	e92d40e0 	push	{r5, r6, r7, lr}
     8fc:	e3a0701e 	mov	r7, #30
     900:	e3a06000 	mov	r6, #0
     904:	ef000000 	svc	0x00000000
     908:	e8bd80e0 	pop	{r5, r6, r7, pc}

0000090c <utee_cryp_obj_copy>:
utee_cryp_obj_copy():
     90c:	e92d40e0 	push	{r5, r6, r7, lr}
     910:	e3a0701f 	mov	r7, #31
     914:	e3a06000 	mov	r6, #0
     918:	ef000000 	svc	0x00000000
     91c:	e8bd80e0 	pop	{r5, r6, r7, pc}

00000920 <utee_cryp_derive_key>:
utee_cryp_derive_key():
     920:	e92d40e0 	push	{r5, r6, r7, lr}
     924:	e3a07020 	mov	r7, #32
     928:	e3a06000 	mov	r6, #0
     92c:	ef000000 	svc	0x00000000
     930:	e8bd80e0 	pop	{r5, r6, r7, pc}

00000934 <utee_cryp_random_number_generate>:
utee_cryp_random_number_generate():
     934:	e92d40e0 	push	{r5, r6, r7, lr}
     938:	e3a07021 	mov	r7, #33	; 0x21
     93c:	e3a06000 	mov	r6, #0
     940:	ef000000 	svc	0x00000000
     944:	e8bd80e0 	pop	{r5, r6, r7, pc}

00000948 <utee_authenc_init>:
utee_authenc_init():
     948:	e92d40e0 	push	{r5, r6, r7, lr}
     94c:	e3a07022 	mov	r7, #34	; 0x22
     950:	e3a06002 	mov	r6, #2
     954:	e28d5010 	add	r5, sp, #16
     958:	ef000000 	svc	0x00000000
     95c:	e8bd80e0 	pop	{r5, r6, r7, pc}

00000960 <utee_authenc_update_aad>:
utee_authenc_update_aad():
     960:	e92d40e0 	push	{r5, r6, r7, lr}
     964:	e3a07023 	mov	r7, #35	; 0x23
     968:	e3a06000 	mov	r6, #0
     96c:	ef000000 	svc	0x00000000
     970:	e8bd80e0 	pop	{r5, r6, r7, pc}

00000974 <utee_authenc_update_payload>:
utee_authenc_update_payload():
     974:	e92d40e0 	push	{r5, r6, r7, lr}
     978:	e3a07024 	mov	r7, #36	; 0x24
     97c:	e3a06001 	mov	r6, #1
     980:	e28d5010 	add	r5, sp, #16
     984:	ef000000 	svc	0x00000000
     988:	e8bd80e0 	pop	{r5, r6, r7, pc}

0000098c <utee_authenc_enc_final>:
utee_authenc_enc_final():
     98c:	e92d40e0 	push	{r5, r6, r7, lr}
     990:	e3a07025 	mov	r7, #37	; 0x25
     994:	e3a06003 	mov	r6, #3
     998:	e28d5010 	add	r5, sp, #16
     99c:	ef000000 	svc	0x00000000
     9a0:	e8bd80e0 	pop	{r5, r6, r7, pc}

000009a4 <utee_authenc_dec_final>:
utee_authenc_dec_final():
     9a4:	e92d40e0 	push	{r5, r6, r7, lr}
     9a8:	e3a07026 	mov	r7, #38	; 0x26
     9ac:	e3a06003 	mov	r6, #3
     9b0:	e28d5010 	add	r5, sp, #16
     9b4:	ef000000 	svc	0x00000000
     9b8:	e8bd80e0 	pop	{r5, r6, r7, pc}

000009bc <utee_asymm_operate>:
utee_asymm_operate():
     9bc:	e92d40e0 	push	{r5, r6, r7, lr}
     9c0:	e3a07027 	mov	r7, #39	; 0x27
     9c4:	e3a06003 	mov	r6, #3
     9c8:	e28d5010 	add	r5, sp, #16
     9cc:	ef000000 	svc	0x00000000
     9d0:	e8bd80e0 	pop	{r5, r6, r7, pc}

000009d4 <utee_asymm_verify>:
utee_asymm_verify():
     9d4:	e92d40e0 	push	{r5, r6, r7, lr}
     9d8:	e3a07028 	mov	r7, #40	; 0x28
     9dc:	e3a06003 	mov	r6, #3
     9e0:	e28d5010 	add	r5, sp, #16
     9e4:	ef000000 	svc	0x00000000
     9e8:	e8bd80e0 	pop	{r5, r6, r7, pc}

000009ec <utee_storage_obj_open>:
utee_storage_obj_open():
     9ec:	e92d40e0 	push	{r5, r6, r7, lr}
     9f0:	e3a07029 	mov	r7, #41	; 0x29
     9f4:	e3a06001 	mov	r6, #1
     9f8:	e28d5010 	add	r5, sp, #16
     9fc:	ef000000 	svc	0x00000000
     a00:	e8bd80e0 	pop	{r5, r6, r7, pc}

00000a04 <utee_storage_obj_create>:
utee_storage_obj_create():
     a04:	e92d40e0 	push	{r5, r6, r7, lr}
     a08:	e3a0702a 	mov	r7, #42	; 0x2a
     a0c:	e3a06004 	mov	r6, #4
     a10:	e28d5010 	add	r5, sp, #16
     a14:	ef000000 	svc	0x00000000
     a18:	e8bd80e0 	pop	{r5, r6, r7, pc}

00000a1c <utee_storage_obj_del>:
utee_storage_obj_del():
     a1c:	e92d40e0 	push	{r5, r6, r7, lr}
     a20:	e3a0702b 	mov	r7, #43	; 0x2b
     a24:	e3a06000 	mov	r6, #0
     a28:	ef000000 	svc	0x00000000
     a2c:	e8bd80e0 	pop	{r5, r6, r7, pc}

00000a30 <utee_storage_obj_rename>:
utee_storage_obj_rename():
     a30:	e92d40e0 	push	{r5, r6, r7, lr}
     a34:	e3a0702c 	mov	r7, #44	; 0x2c
     a38:	e3a06000 	mov	r6, #0
     a3c:	ef000000 	svc	0x00000000
     a40:	e8bd80e0 	pop	{r5, r6, r7, pc}

00000a44 <utee_storage_alloc_enum>:
utee_storage_alloc_enum():
     a44:	e92d40e0 	push	{r5, r6, r7, lr}
     a48:	e3a0702d 	mov	r7, #45	; 0x2d
     a4c:	e3a06000 	mov	r6, #0
     a50:	ef000000 	svc	0x00000000
     a54:	e8bd80e0 	pop	{r5, r6, r7, pc}

00000a58 <utee_storage_free_enum>:
utee_storage_free_enum():
     a58:	e92d40e0 	push	{r5, r6, r7, lr}
     a5c:	e3a0702e 	mov	r7, #46	; 0x2e
     a60:	e3a06000 	mov	r6, #0
     a64:	ef000000 	svc	0x00000000
     a68:	e8bd80e0 	pop	{r5, r6, r7, pc}

00000a6c <utee_storage_reset_enum>:
utee_storage_reset_enum():
     a6c:	e92d40e0 	push	{r5, r6, r7, lr}
     a70:	e3a0702f 	mov	r7, #47	; 0x2f
     a74:	e3a06000 	mov	r6, #0
     a78:	ef000000 	svc	0x00000000
     a7c:	e8bd80e0 	pop	{r5, r6, r7, pc}

00000a80 <utee_storage_start_enum>:
utee_storage_start_enum():
     a80:	e92d40e0 	push	{r5, r6, r7, lr}
     a84:	e3a07030 	mov	r7, #48	; 0x30
     a88:	e3a06000 	mov	r6, #0
     a8c:	ef000000 	svc	0x00000000
     a90:	e8bd80e0 	pop	{r5, r6, r7, pc}

00000a94 <utee_storage_next_enum>:
utee_storage_next_enum():
     a94:	e92d40e0 	push	{r5, r6, r7, lr}
     a98:	e3a07031 	mov	r7, #49	; 0x31
     a9c:	e3a06000 	mov	r6, #0
     aa0:	ef000000 	svc	0x00000000
     aa4:	e8bd80e0 	pop	{r5, r6, r7, pc}

00000aa8 <utee_storage_obj_read>:
utee_storage_obj_read():
     aa8:	e92d40e0 	push	{r5, r6, r7, lr}
     aac:	e3a07032 	mov	r7, #50	; 0x32
     ab0:	e3a06000 	mov	r6, #0
     ab4:	ef000000 	svc	0x00000000
     ab8:	e8bd80e0 	pop	{r5, r6, r7, pc}

00000abc <utee_storage_obj_write>:
utee_storage_obj_write():
     abc:	e92d40e0 	push	{r5, r6, r7, lr}
     ac0:	e3a07033 	mov	r7, #51	; 0x33
     ac4:	e3a06000 	mov	r6, #0
     ac8:	ef000000 	svc	0x00000000
     acc:	e8bd80e0 	pop	{r5, r6, r7, pc}

00000ad0 <utee_storage_obj_trunc>:
utee_storage_obj_trunc():
     ad0:	e92d40e0 	push	{r5, r6, r7, lr}
     ad4:	e3a07034 	mov	r7, #52	; 0x34
     ad8:	e3a06000 	mov	r6, #0
     adc:	ef000000 	svc	0x00000000
     ae0:	e8bd80e0 	pop	{r5, r6, r7, pc}

00000ae4 <utee_storage_obj_seek>:
utee_storage_obj_seek():
     ae4:	e92d40e0 	push	{r5, r6, r7, lr}
     ae8:	e3a07035 	mov	r7, #53	; 0x35
     aec:	e3a06000 	mov	r6, #0
     af0:	ef000000 	svc	0x00000000
     af4:	e8bd80e0 	pop	{r5, r6, r7, pc}

00000af8 <utee_cryp_obj_generate_key>:
utee_cryp_obj_generate_key():
     af8:	e92d40e0 	push	{r5, r6, r7, lr}
     afc:	e3a07036 	mov	r7, #54	; 0x36
     b00:	e3a06000 	mov	r6, #0
     b04:	ef000000 	svc	0x00000000
     b08:	e8bd80e0 	pop	{r5, r6, r7, pc}

00000b0c <utee_se_service_open>:
utee_se_service_open():
     b0c:	e92d40e0 	push	{r5, r6, r7, lr}
     b10:	e3a07037 	mov	r7, #55	; 0x37
     b14:	e3a06000 	mov	r6, #0
     b18:	ef000000 	svc	0x00000000
     b1c:	e8bd80e0 	pop	{r5, r6, r7, pc}

00000b20 <utee_se_service_close>:
utee_se_service_close():
     b20:	e92d40e0 	push	{r5, r6, r7, lr}
     b24:	e3a07038 	mov	r7, #56	; 0x38
     b28:	e3a06000 	mov	r6, #0
     b2c:	ef000000 	svc	0x00000000
     b30:	e8bd80e0 	pop	{r5, r6, r7, pc}

00000b34 <utee_se_service_get_readers>:
utee_se_service_get_readers():
     b34:	e92d40e0 	push	{r5, r6, r7, lr}
     b38:	e3a07039 	mov	r7, #57	; 0x39
     b3c:	e3a06000 	mov	r6, #0
     b40:	ef000000 	svc	0x00000000
     b44:	e8bd80e0 	pop	{r5, r6, r7, pc}

00000b48 <utee_se_reader_get_prop>:
utee_se_reader_get_prop():
     b48:	e92d40e0 	push	{r5, r6, r7, lr}
     b4c:	e3a0703a 	mov	r7, #58	; 0x3a
     b50:	e3a06000 	mov	r6, #0
     b54:	ef000000 	svc	0x00000000
     b58:	e8bd80e0 	pop	{r5, r6, r7, pc}

00000b5c <utee_se_reader_get_name>:
utee_se_reader_get_name():
     b5c:	e92d40e0 	push	{r5, r6, r7, lr}
     b60:	e3a0703b 	mov	r7, #59	; 0x3b
     b64:	e3a06000 	mov	r6, #0
     b68:	ef000000 	svc	0x00000000
     b6c:	e8bd80e0 	pop	{r5, r6, r7, pc}

00000b70 <utee_se_reader_open_session>:
utee_se_reader_open_session():
     b70:	e92d40e0 	push	{r5, r6, r7, lr}
     b74:	e3a0703c 	mov	r7, #60	; 0x3c
     b78:	e3a06000 	mov	r6, #0
     b7c:	ef000000 	svc	0x00000000
     b80:	e8bd80e0 	pop	{r5, r6, r7, pc}

00000b84 <utee_se_reader_close_sessions>:
utee_se_reader_close_sessions():
     b84:	e92d40e0 	push	{r5, r6, r7, lr}
     b88:	e3a0703d 	mov	r7, #61	; 0x3d
     b8c:	e3a06000 	mov	r6, #0
     b90:	ef000000 	svc	0x00000000
     b94:	e8bd80e0 	pop	{r5, r6, r7, pc}

00000b98 <utee_se_session_is_closed>:
utee_se_session_is_closed():
     b98:	e92d40e0 	push	{r5, r6, r7, lr}
     b9c:	e3a0703e 	mov	r7, #62	; 0x3e
     ba0:	e3a06000 	mov	r6, #0
     ba4:	ef000000 	svc	0x00000000
     ba8:	e8bd80e0 	pop	{r5, r6, r7, pc}

00000bac <utee_se_session_get_atr>:
utee_se_session_get_atr():
     bac:	e92d40e0 	push	{r5, r6, r7, lr}
     bb0:	e3a0703f 	mov	r7, #63	; 0x3f
     bb4:	e3a06000 	mov	r6, #0
     bb8:	ef000000 	svc	0x00000000
     bbc:	e8bd80e0 	pop	{r5, r6, r7, pc}

00000bc0 <utee_se_session_open_channel>:
utee_se_session_open_channel():
     bc0:	e92d40e0 	push	{r5, r6, r7, lr}
     bc4:	e3a07040 	mov	r7, #64	; 0x40
     bc8:	e3a06001 	mov	r6, #1
     bcc:	e28d5010 	add	r5, sp, #16
     bd0:	ef000000 	svc	0x00000000
     bd4:	e8bd80e0 	pop	{r5, r6, r7, pc}

00000bd8 <utee_se_session_close>:
utee_se_session_close():
     bd8:	e92d40e0 	push	{r5, r6, r7, lr}
     bdc:	e3a07041 	mov	r7, #65	; 0x41
     be0:	e3a06000 	mov	r6, #0
     be4:	ef000000 	svc	0x00000000
     be8:	e8bd80e0 	pop	{r5, r6, r7, pc}

00000bec <utee_se_channel_select_next>:
utee_se_channel_select_next():
     bec:	e92d40e0 	push	{r5, r6, r7, lr}
     bf0:	e3a07042 	mov	r7, #66	; 0x42
     bf4:	e3a06000 	mov	r6, #0
     bf8:	ef000000 	svc	0x00000000
     bfc:	e8bd80e0 	pop	{r5, r6, r7, pc}

00000c00 <utee_se_channel_get_select_resp>:
utee_se_channel_get_select_resp():
     c00:	e92d40e0 	push	{r5, r6, r7, lr}
     c04:	e3a07043 	mov	r7, #67	; 0x43
     c08:	e3a06000 	mov	r6, #0
     c0c:	ef000000 	svc	0x00000000
     c10:	e8bd80e0 	pop	{r5, r6, r7, pc}

00000c14 <utee_se_channel_transmit>:
utee_se_channel_transmit():
     c14:	e92d40e0 	push	{r5, r6, r7, lr}
     c18:	e3a07044 	mov	r7, #68	; 0x44
     c1c:	e3a06001 	mov	r6, #1
     c20:	e28d5010 	add	r5, sp, #16
     c24:	ef000000 	svc	0x00000000
     c28:	e8bd80e0 	pop	{r5, r6, r7, pc}

00000c2c <utee_se_channel_close>:
utee_se_channel_close():
     c2c:	e92d40e0 	push	{r5, r6, r7, lr}
     c30:	e3a07045 	mov	r7, #69	; 0x45
     c34:	e3a06000 	mov	r6, #0
     c38:	ef000000 	svc	0x00000000
     c3c:	e8bd80e0 	pop	{r5, r6, r7, pc}

00000c40 <utee_cache_operation>:
utee_cache_operation():
     c40:	e92d40e0 	push	{r5, r6, r7, lr}
     c44:	e3a07046 	mov	r7, #70	; 0x46
     c48:	e3a06000 	mov	r6, #0
     c4c:	ef000000 	svc	0x00000000
     c50:	e8bd80e0 	pop	{r5, r6, r7, pc}

00000c54 <TEE_BigInt_Panic>:
TEE_BigInt_Panic():
/home/ocean/projects/invisiblecode/invisible-code/optee_qemu/optee_os/lib/libutee/tee_api_arith.c:63
     c54:	e96d 7e02 	strd	r7, lr, [sp, #-8]!
     c58:	b084      	sub	sp, #16
     c5a:	af02      	add	r7, sp, #8
     c5c:	6078      	str	r0, [r7, #4]
/home/ocean/projects/invisiblecode/invisible-code/optee_qemu/optee_os/lib/libutee/tee_api_arith.c:64
     c5e:	6879      	ldr	r1, [r7, #4]
     c60:	4b0e      	ldr	r3, [pc, #56]	; (c9c <TEE_BigInt_Panic+0x48>)
     c62:	447b      	add	r3, pc
     c64:	4618      	mov	r0, r3
     c66:	f001 fe19 	bl	289c <printf>
/home/ocean/projects/invisiblecode/invisible-code/optee_qemu/optee_os/lib/libutee/tee_api_arith.c:65
     c6a:	f246 1327 	movw	r3, #24871	; 0x6127
     c6e:	f2c0 03b1 	movt	r3, #177	; 0xb1
     c72:	9301      	str	r3, [sp, #4]
     c74:	4b0a      	ldr	r3, [pc, #40]	; (ca0 <TEE_BigInt_Panic+0x4c>)
     c76:	447b      	add	r3, pc
     c78:	9300      	str	r3, [sp, #0]
     c7a:	f04f 0301 	mov.w	r3, #1
     c7e:	f04f 0201 	mov.w	r2, #1
     c82:	f04f 0141 	mov.w	r1, #65	; 0x41
     c86:	4807      	ldr	r0, [pc, #28]	; (ca4 <TEE_BigInt_Panic+0x50>)
     c88:	4478      	add	r0, pc
     c8a:	f004 fdc7 	bl	581c <trace_printf>
     c8e:	f246 1027 	movw	r0, #24871	; 0x6127
     c92:	f2c0 00b1 	movt	r0, #177	; 0xb1
     c96:	f001 f97b 	bl	1f90 <__TEE_Panic>
/home/ocean/projects/invisiblecode/invisible-code/optee_qemu/optee_os/lib/libutee/tee_api_arith.c:67 (discriminator 1)
     c9a:	e7fe      	b.n	c9a <TEE_BigInt_Panic+0x46>
     c9c:	00009dca 	.word	0x00009dca
     ca0:	00009dc2 	.word	0x00009dc2
     ca4:	00009e10 	.word	0x00009e10

00000ca8 <_TEE_MathAPI_Init>:
_TEE_MathAPI_Init():
/home/ocean/projects/invisiblecode/invisible-code/optee_qemu/optee_os/lib/libutee/tee_api_arith.c:78
     ca8:	e96d 3404 	strd	r3, r4, [sp, #-16]!
     cac:	e9cd 7e02 	strd	r7, lr, [sp, #8]
     cb0:	af00      	add	r7, sp, #0
     cb2:	4c0b      	ldr	r4, [pc, #44]	; (ce0 <_TEE_MathAPI_Init+0x38>)
     cb4:	447c      	add	r4, pc
/home/ocean/projects/invisiblecode/invisible-code/optee_qemu/optee_os/lib/libutee/tee_api_arith.c:79
     cb6:	4b0b      	ldr	r3, [pc, #44]	; (ce4 <_TEE_MathAPI_Init+0x3c>)
     cb8:	447b      	add	r3, pc
     cba:	681b      	ldr	r3, [r3, #0]
     cbc:	f44f 6200 	mov.w	r2, #2048	; 0x800
     cc0:	f44f 51d8 	mov.w	r1, #6912	; 0x1b00
     cc4:	4618      	mov	r0, r3
     cc6:	f007 f8f9 	bl	7ebc <mpa_init_scratch_mem>
/home/ocean/projects/invisiblecode/invisible-code/optee_qemu/optee_os/lib/libutee/tee_api_arith.c:81
     cca:	4b07      	ldr	r3, [pc, #28]	; (ce8 <_TEE_MathAPI_Init+0x40>)
     ccc:	58e3      	ldr	r3, [r4, r3]
     cce:	4618      	mov	r0, r3
     cd0:	f007 fc1c 	bl	850c <mpa_set_random_generator>
/home/ocean/projects/invisiblecode/invisible-code/optee_qemu/optee_os/lib/libutee/tee_api_arith.c:82
     cd4:	bf00      	nop
     cd6:	46bd      	mov	sp, r7
     cd8:	e9dd 3400 	ldrd	r3, r4, [sp]
     cdc:	b002      	add	sp, #8
     cde:	bd80      	pop	{r7, pc}
     ce0:	0000b44c 	.word	0x0000b44c
     ce4:	0000c3bc 	.word	0x0000c3bc
     ce8:	00000014 	.word	0x00000014

00000cec <TEE_BigIntInit>:
TEE_BigIntInit():
/home/ocean/projects/invisiblecode/invisible-code/optee_qemu/optee_os/lib/libutee/tee_api_arith.c:88
     cec:	e96d 7e02 	strd	r7, lr, [sp, #-8]!
     cf0:	b082      	sub	sp, #8
     cf2:	af00      	add	r7, sp, #0
     cf4:	6078      	str	r0, [r7, #4]
     cf6:	6039      	str	r1, [r7, #0]
/home/ocean/projects/invisiblecode/invisible-code/optee_qemu/optee_os/lib/libutee/tee_api_arith.c:89
     cf8:	6839      	ldr	r1, [r7, #0]
     cfa:	6878      	ldr	r0, [r7, #4]
     cfc:	f008 feca 	bl	9a94 <mpa_init_static>
/home/ocean/projects/invisiblecode/invisible-code/optee_qemu/optee_os/lib/libutee/tee_api_arith.c:90
     d00:	bf00      	nop
     d02:	f107 0708 	add.w	r7, r7, #8
     d06:	46bd      	mov	sp, r7
     d08:	bd80      	pop	{r7, pc}
     d0a:	bf00      	nop

00000d0c <TEE_BigIntInitFMM>:
TEE_BigIntInitFMM():
/home/ocean/projects/invisiblecode/invisible-code/optee_qemu/optee_os/lib/libutee/tee_api_arith.c:96
     d0c:	f84d 7d04 	str.w	r7, [sp, #-4]!
     d10:	b085      	sub	sp, #20
     d12:	af00      	add	r7, sp, #0
     d14:	6078      	str	r0, [r7, #4]
     d16:	6039      	str	r1, [r7, #0]
/home/ocean/projects/invisiblecode/invisible-code/optee_qemu/optee_os/lib/libutee/tee_api_arith.c:97
     d18:	687b      	ldr	r3, [r7, #4]
     d1a:	60fb      	str	r3, [r7, #12]
/home/ocean/projects/invisiblecode/invisible-code/optee_qemu/optee_os/lib/libutee/tee_api_arith.c:99
     d1c:	683b      	ldr	r3, [r7, #0]
     d1e:	f103 4380 	add.w	r3, r3, #1073741824	; 0x40000000
     d22:	f1a3 0302 	sub.w	r3, r3, #2
     d26:	ea4f 0383 	mov.w	r3, r3, lsl #2
     d2a:	f103 0303 	add.w	r3, r3, #3
     d2e:	ea4f 0293 	mov.w	r2, r3, lsr #2
     d32:	68fb      	ldr	r3, [r7, #12]
     d34:	601a      	str	r2, [r3, #0]
/home/ocean/projects/invisiblecode/invisible-code/optee_qemu/optee_os/lib/libutee/tee_api_arith.c:100
     d36:	68fb      	ldr	r3, [r7, #12]
     d38:	f04f 0200 	mov.w	r2, #0
     d3c:	605a      	str	r2, [r3, #4]
/home/ocean/projects/invisiblecode/invisible-code/optee_qemu/optee_os/lib/libutee/tee_api_arith.c:101
     d3e:	bf00      	nop
     d40:	f107 0714 	add.w	r7, r7, #20
     d44:	46bd      	mov	sp, r7
     d46:	f85d 7b04 	ldr.w	r7, [sp], #4
     d4a:	4770      	bx	lr

00000d4c <TEE_BigIntInitFMMContext>:
TEE_BigIntInitFMMContext():
/home/ocean/projects/invisiblecode/invisible-code/optee_qemu/optee_os/lib/libutee/tee_api_arith.c:108
     d4c:	e96d 7e02 	strd	r7, lr, [sp, #-8]!
     d50:	b088      	sub	sp, #32
     d52:	af02      	add	r7, sp, #8
     d54:	60f8      	str	r0, [r7, #12]
     d56:	60b9      	str	r1, [r7, #8]
     d58:	607a      	str	r2, [r7, #4]
/home/ocean/projects/invisiblecode/invisible-code/optee_qemu/optee_os/lib/libutee/tee_api_arith.c:109
     d5a:	68fb      	ldr	r3, [r7, #12]
     d5c:	617b      	str	r3, [r7, #20]
/home/ocean/projects/invisiblecode/invisible-code/optee_qemu/optee_os/lib/libutee/tee_api_arith.c:110
     d5e:	687b      	ldr	r3, [r7, #4]
     d60:	613b      	str	r3, [r7, #16]
/home/ocean/projects/invisiblecode/invisible-code/optee_qemu/optee_os/lib/libutee/tee_api_arith.c:112
     d62:	68b9      	ldr	r1, [r7, #8]
     d64:	6978      	ldr	r0, [r7, #20]
     d66:	f008 febb 	bl	9ae0 <mpa_init_static_fmm_context>
/home/ocean/projects/invisiblecode/invisible-code/optee_qemu/optee_os/lib/libutee/tee_api_arith.c:113
     d6a:	697b      	ldr	r3, [r7, #20]
     d6c:	6819      	ldr	r1, [r3, #0]
     d6e:	697b      	ldr	r3, [r7, #20]
     d70:	685a      	ldr	r2, [r3, #4]
     d72:	697b      	ldr	r3, [r7, #20]
     d74:	f103 0008 	add.w	r0, r3, #8
     d78:	4b06      	ldr	r3, [pc, #24]	; (d94 <TEE_BigIntInitFMMContext+0x48>)
     d7a:	447b      	add	r3, pc
     d7c:	681b      	ldr	r3, [r3, #0]
     d7e:	9300      	str	r3, [sp, #0]
     d80:	4603      	mov	r3, r0
     d82:	6938      	ldr	r0, [r7, #16]
     d84:	f005 fbb0 	bl	64e8 <mpa_compute_fmm_context>
/home/ocean/projects/invisiblecode/invisible-code/optee_qemu/optee_os/lib/libutee/tee_api_arith.c:116
     d88:	bf00      	nop
     d8a:	f107 0718 	add.w	r7, r7, #24
     d8e:	46bd      	mov	sp, r7
     d90:	bd80      	pop	{r7, pc}
     d92:	bf00      	nop
     d94:	0000c2fa 	.word	0x0000c2fa

00000d98 <TEE_BigIntFMMSizeInU32>:
TEE_BigIntFMMSizeInU32():
/home/ocean/projects/invisiblecode/invisible-code/optee_qemu/optee_os/lib/libutee/tee_api_arith.c:126
     d98:	f84d 7d04 	str.w	r7, [sp, #-4]!
     d9c:	b083      	sub	sp, #12
     d9e:	af00      	add	r7, sp, #0
     da0:	6078      	str	r0, [r7, #4]
/home/ocean/projects/invisiblecode/invisible-code/optee_qemu/optee_os/lib/libutee/tee_api_arith.c:127
     da2:	687b      	ldr	r3, [r7, #4]
     da4:	f103 031f 	add.w	r3, r3, #31
     da8:	ea4f 1353 	mov.w	r3, r3, lsr #5
     dac:	f103 0303 	add.w	r3, r3, #3
/home/ocean/projects/invisiblecode/invisible-code/optee_qemu/optee_os/lib/libutee/tee_api_arith.c:128
     db0:	4618      	mov	r0, r3
     db2:	f107 070c 	add.w	r7, r7, #12
     db6:	46bd      	mov	sp, r7
     db8:	f85d 7b04 	ldr.w	r7, [sp], #4
     dbc:	4770      	bx	lr
     dbe:	bf00      	nop

00000dc0 <TEE_BigIntFMMContextSizeInU32>:
TEE_BigIntFMMContextSizeInU32():
/home/ocean/projects/invisiblecode/invisible-code/optee_qemu/optee_os/lib/libutee/tee_api_arith.c:134
     dc0:	f84d 7d04 	str.w	r7, [sp, #-4]!
     dc4:	b083      	sub	sp, #12
     dc6:	af00      	add	r7, sp, #0
     dc8:	6078      	str	r0, [r7, #4]
/home/ocean/projects/invisiblecode/invisible-code/optee_qemu/optee_os/lib/libutee/tee_api_arith.c:135
     dca:	687b      	ldr	r3, [r7, #4]
     dcc:	f103 031f 	add.w	r3, r3, #31
     dd0:	ea4f 1353 	mov.w	r3, r3, lsr #5
     dd4:	f103 0304 	add.w	r3, r3, #4
     dd8:	ea4f 0343 	mov.w	r3, r3, lsl #1
     ddc:	f103 0303 	add.w	r3, r3, #3
/home/ocean/projects/invisiblecode/invisible-code/optee_qemu/optee_os/lib/libutee/tee_api_arith.c:136
     de0:	4618      	mov	r0, r3
     de2:	f107 070c 	add.w	r7, r7, #12
     de6:	46bd      	mov	sp, r7
     de8:	f85d 7b04 	ldr.w	r7, [sp], #4
     dec:	4770      	bx	lr
     dee:	bf00      	nop

00000df0 <TEE_BigIntConvertFromOctetString>:
TEE_BigIntConvertFromOctetString():
/home/ocean/projects/invisiblecode/invisible-code/optee_qemu/optee_os/lib/libutee/tee_api_arith.c:149
     df0:	e96d 7e02 	strd	r7, lr, [sp, #-8]!
     df4:	b08a      	sub	sp, #40	; 0x28
     df6:	af02      	add	r7, sp, #8
     df8:	60f8      	str	r0, [r7, #12]
     dfa:	60b9      	str	r1, [r7, #8]
     dfc:	607a      	str	r2, [r7, #4]
     dfe:	603b      	str	r3, [r7, #0]
/home/ocean/projects/invisiblecode/invisible-code/optee_qemu/optee_os/lib/libutee/tee_api_arith.c:151
     e00:	68fb      	ldr	r3, [r7, #12]
     e02:	61bb      	str	r3, [r7, #24]
/home/ocean/projects/invisiblecode/invisible-code/optee_qemu/optee_os/lib/libutee/tee_api_arith.c:152
     e04:	683b      	ldr	r3, [r7, #0]
     e06:	ea4f 73d3 	mov.w	r3, r3, lsr #31
     e0a:	75fb      	strb	r3, [r7, #23]
/home/ocean/projects/invisiblecode/invisible-code/optee_qemu/optee_os/lib/libutee/tee_api_arith.c:154
     e0c:	7dfb      	ldrb	r3, [r7, #23]
     e0e:	687a      	ldr	r2, [r7, #4]
     e10:	68b9      	ldr	r1, [r7, #8]
     e12:	69b8      	ldr	r0, [r7, #24]
     e14:	f009 fabc 	bl	a390 <mpa_set_oct_str>
     e18:	4603      	mov	r3, r0
     e1a:	2b00      	cmp	r3, #0
     e1c:	d005      	beq.n	e2a <TEE_BigIntConvertFromOctetString+0x3a>
/home/ocean/projects/invisiblecode/invisible-code/optee_qemu/optee_os/lib/libutee/tee_api_arith.c:155
     e1e:	f243 030f 	movw	r3, #12303	; 0x300f
     e22:	f6cf 73ff 	movt	r3, #65535	; 0xffff
     e26:	61fb      	str	r3, [r7, #28]
     e28:	e002      	b.n	e30 <TEE_BigIntConvertFromOctetString+0x40>
/home/ocean/projects/invisiblecode/invisible-code/optee_qemu/optee_os/lib/libutee/tee_api_arith.c:157
     e2a:	f04f 0300 	mov.w	r3, #0
     e2e:	61fb      	str	r3, [r7, #28]
/home/ocean/projects/invisiblecode/invisible-code/optee_qemu/optee_os/lib/libutee/tee_api_arith.c:159
     e30:	69fb      	ldr	r3, [r7, #28]
     e32:	2b00      	cmp	r3, #0
     e34:	d018      	beq.n	e68 <TEE_BigIntConvertFromOctetString+0x78>
/home/ocean/projects/invisiblecode/invisible-code/optee_qemu/optee_os/lib/libutee/tee_api_arith.c:159 (discriminator 1)
     e36:	69fa      	ldr	r2, [r7, #28]
     e38:	f243 030f 	movw	r3, #12303	; 0x300f
     e3c:	f6cf 73ff 	movt	r3, #65535	; 0xffff
     e40:	429a      	cmp	r2, r3
     e42:	d011      	beq.n	e68 <TEE_BigIntConvertFromOctetString+0x78>
/home/ocean/projects/invisiblecode/invisible-code/optee_qemu/optee_os/lib/libutee/tee_api_arith.c:161
     e44:	69fb      	ldr	r3, [r7, #28]
     e46:	9301      	str	r3, [sp, #4]
     e48:	4b0a      	ldr	r3, [pc, #40]	; (e74 <TEE_BigIntConvertFromOctetString+0x84>)
     e4a:	447b      	add	r3, pc
     e4c:	9300      	str	r3, [sp, #0]
     e4e:	f04f 0301 	mov.w	r3, #1
     e52:	f04f 0201 	mov.w	r2, #1
     e56:	f04f 01a1 	mov.w	r1, #161	; 0xa1
     e5a:	4807      	ldr	r0, [pc, #28]	; (e78 <TEE_BigIntConvertFromOctetString+0x88>)
     e5c:	4478      	add	r0, pc
     e5e:	f004 fcdd 	bl	581c <trace_printf>
     e62:	69f8      	ldr	r0, [r7, #28]
     e64:	f001 f894 	bl	1f90 <__TEE_Panic>
/home/ocean/projects/invisiblecode/invisible-code/optee_qemu/optee_os/lib/libutee/tee_api_arith.c:163
     e68:	69fb      	ldr	r3, [r7, #28]
/home/ocean/projects/invisiblecode/invisible-code/optee_qemu/optee_os/lib/libutee/tee_api_arith.c:164
     e6a:	4618      	mov	r0, r3
     e6c:	f107 0720 	add.w	r7, r7, #32
     e70:	46bd      	mov	sp, r7
     e72:	bd80      	pop	{r7, pc}
     e74:	00009bee 	.word	0x00009bee
     e78:	00009c50 	.word	0x00009c50

00000e7c <TEE_BigIntConvertToOctetString>:
TEE_BigIntConvertToOctetString():
/home/ocean/projects/invisiblecode/invisible-code/optee_qemu/optee_os/lib/libutee/tee_api_arith.c:172
     e7c:	e96d 7e02 	strd	r7, lr, [sp, #-8]!
     e80:	b08a      	sub	sp, #40	; 0x28
     e82:	af02      	add	r7, sp, #8
     e84:	60f8      	str	r0, [r7, #12]
     e86:	60b9      	str	r1, [r7, #8]
     e88:	607a      	str	r2, [r7, #4]
/home/ocean/projects/invisiblecode/invisible-code/optee_qemu/optee_os/lib/libutee/tee_api_arith.c:173
     e8a:	687b      	ldr	r3, [r7, #4]
     e8c:	61bb      	str	r3, [r7, #24]
/home/ocean/projects/invisiblecode/invisible-code/optee_qemu/optee_os/lib/libutee/tee_api_arith.c:174
     e8e:	68bb      	ldr	r3, [r7, #8]
     e90:	681b      	ldr	r3, [r3, #0]
     e92:	617b      	str	r3, [r7, #20]
/home/ocean/projects/invisiblecode/invisible-code/optee_qemu/optee_os/lib/libutee/tee_api_arith.c:177
     e94:	f107 0314 	add.w	r3, r7, #20
     e98:	69ba      	ldr	r2, [r7, #24]
     e9a:	4619      	mov	r1, r3
     e9c:	68f8      	ldr	r0, [r7, #12]
     e9e:	f009 fb0f 	bl	a4c0 <mpa_get_oct_str>
     ea2:	4603      	mov	r3, r0
     ea4:	2b00      	cmp	r3, #0
     ea6:	d005      	beq.n	eb4 <TEE_BigIntConvertToOctetString+0x38>
/home/ocean/projects/invisiblecode/invisible-code/optee_qemu/optee_os/lib/libutee/tee_api_arith.c:178
     ea8:	f04f 0310 	mov.w	r3, #16
     eac:	f6cf 73ff 	movt	r3, #65535	; 0xffff
     eb0:	61fb      	str	r3, [r7, #28]
     eb2:	e002      	b.n	eba <TEE_BigIntConvertToOctetString+0x3e>
/home/ocean/projects/invisiblecode/invisible-code/optee_qemu/optee_os/lib/libutee/tee_api_arith.c:180
     eb4:	f04f 0300 	mov.w	r3, #0
     eb8:	61fb      	str	r3, [r7, #28]
/home/ocean/projects/invisiblecode/invisible-code/optee_qemu/optee_os/lib/libutee/tee_api_arith.c:182
     eba:	697a      	ldr	r2, [r7, #20]
     ebc:	68bb      	ldr	r3, [r7, #8]
     ebe:	601a      	str	r2, [r3, #0]
/home/ocean/projects/invisiblecode/invisible-code/optee_qemu/optee_os/lib/libutee/tee_api_arith.c:184
     ec0:	69fb      	ldr	r3, [r7, #28]
     ec2:	2b00      	cmp	r3, #0
     ec4:	d018      	beq.n	ef8 <TEE_BigIntConvertToOctetString+0x7c>
/home/ocean/projects/invisiblecode/invisible-code/optee_qemu/optee_os/lib/libutee/tee_api_arith.c:184 (discriminator 1)
     ec6:	69fa      	ldr	r2, [r7, #28]
     ec8:	f04f 0310 	mov.w	r3, #16
     ecc:	f6cf 73ff 	movt	r3, #65535	; 0xffff
     ed0:	429a      	cmp	r2, r3
     ed2:	d011      	beq.n	ef8 <TEE_BigIntConvertToOctetString+0x7c>
/home/ocean/projects/invisiblecode/invisible-code/optee_qemu/optee_os/lib/libutee/tee_api_arith.c:186
     ed4:	69fb      	ldr	r3, [r7, #28]
     ed6:	9301      	str	r3, [sp, #4]
     ed8:	4b0a      	ldr	r3, [pc, #40]	; (f04 <TEE_BigIntConvertToOctetString+0x88>)
     eda:	447b      	add	r3, pc
     edc:	9300      	str	r3, [sp, #0]
     ede:	f04f 0301 	mov.w	r3, #1
     ee2:	f04f 0201 	mov.w	r2, #1
     ee6:	f04f 01ba 	mov.w	r1, #186	; 0xba
     eea:	4807      	ldr	r0, [pc, #28]	; (f08 <TEE_BigIntConvertToOctetString+0x8c>)
     eec:	4478      	add	r0, pc
     eee:	f004 fc95 	bl	581c <trace_printf>
     ef2:	69f8      	ldr	r0, [r7, #28]
     ef4:	f001 f84c 	bl	1f90 <__TEE_Panic>
/home/ocean/projects/invisiblecode/invisible-code/optee_qemu/optee_os/lib/libutee/tee_api_arith.c:188
     ef8:	69fb      	ldr	r3, [r7, #28]
/home/ocean/projects/invisiblecode/invisible-code/optee_qemu/optee_os/lib/libutee/tee_api_arith.c:189
     efa:	4618      	mov	r0, r3
     efc:	f107 0720 	add.w	r7, r7, #32
     f00:	46bd      	mov	sp, r7
     f02:	bd80      	pop	{r7, pc}
     f04:	00009b5e 	.word	0x00009b5e
     f08:	00009be4 	.word	0x00009be4

00000f0c <TEE_BigIntConvertFromS32>:
TEE_BigIntConvertFromS32():
/home/ocean/projects/invisiblecode/invisible-code/optee_qemu/optee_os/lib/libutee/tee_api_arith.c:195
     f0c:	e96d 7e02 	strd	r7, lr, [sp, #-8]!
     f10:	b084      	sub	sp, #16
     f12:	af00      	add	r7, sp, #0
     f14:	6078      	str	r0, [r7, #4]
     f16:	6039      	str	r1, [r7, #0]
/home/ocean/projects/invisiblecode/invisible-code/optee_qemu/optee_os/lib/libutee/tee_api_arith.c:196
     f18:	687b      	ldr	r3, [r7, #4]
     f1a:	60fb      	str	r3, [r7, #12]
/home/ocean/projects/invisiblecode/invisible-code/optee_qemu/optee_os/lib/libutee/tee_api_arith.c:199
     f1c:	6839      	ldr	r1, [r7, #0]
     f1e:	68f8      	ldr	r0, [r7, #12]
     f20:	f005 fdc0 	bl	6aa4 <mpa_set_S32>
/home/ocean/projects/invisiblecode/invisible-code/optee_qemu/optee_os/lib/libutee/tee_api_arith.c:203
     f24:	bf00      	nop
     f26:	f107 0710 	add.w	r7, r7, #16
     f2a:	46bd      	mov	sp, r7
     f2c:	bd80      	pop	{r7, pc}
     f2e:	bf00      	nop

00000f30 <TEE_BigIntConvertToS32>:
TEE_BigIntConvertToS32():
/home/ocean/projects/invisiblecode/invisible-code/optee_qemu/optee_os/lib/libutee/tee_api_arith.c:209
     f30:	e96d 7e02 	strd	r7, lr, [sp, #-8]!
     f34:	b086      	sub	sp, #24
     f36:	af02      	add	r7, sp, #8
     f38:	6078      	str	r0, [r7, #4]
     f3a:	6039      	str	r1, [r7, #0]
/home/ocean/projects/invisiblecode/invisible-code/optee_qemu/optee_os/lib/libutee/tee_api_arith.c:211
     f3c:	683b      	ldr	r3, [r7, #0]
     f3e:	60bb      	str	r3, [r7, #8]
/home/ocean/projects/invisiblecode/invisible-code/optee_qemu/optee_os/lib/libutee/tee_api_arith.c:213
     f40:	68b9      	ldr	r1, [r7, #8]
     f42:	6878      	ldr	r0, [r7, #4]
     f44:	f005 fdd4 	bl	6af0 <mpa_get_S32>
     f48:	4603      	mov	r3, r0
     f4a:	2b00      	cmp	r3, #0
     f4c:	d103      	bne.n	f56 <TEE_BigIntConvertToS32+0x26>
/home/ocean/projects/invisiblecode/invisible-code/optee_qemu/optee_os/lib/libutee/tee_api_arith.c:214
     f4e:	f04f 0300 	mov.w	r3, #0
     f52:	60fb      	str	r3, [r7, #12]
     f54:	e004      	b.n	f60 <TEE_BigIntConvertToS32+0x30>
/home/ocean/projects/invisiblecode/invisible-code/optee_qemu/optee_os/lib/libutee/tee_api_arith.c:216
     f56:	f243 030f 	movw	r3, #12303	; 0x300f
     f5a:	f6cf 73ff 	movt	r3, #65535	; 0xffff
     f5e:	60fb      	str	r3, [r7, #12]
/home/ocean/projects/invisiblecode/invisible-code/optee_qemu/optee_os/lib/libutee/tee_api_arith.c:218
     f60:	68fb      	ldr	r3, [r7, #12]
     f62:	2b00      	cmp	r3, #0
     f64:	d018      	beq.n	f98 <TEE_BigIntConvertToS32+0x68>
/home/ocean/projects/invisiblecode/invisible-code/optee_qemu/optee_os/lib/libutee/tee_api_arith.c:218 (discriminator 1)
     f66:	68fa      	ldr	r2, [r7, #12]
     f68:	f243 030f 	movw	r3, #12303	; 0x300f
     f6c:	f6cf 73ff 	movt	r3, #65535	; 0xffff
     f70:	429a      	cmp	r2, r3
     f72:	d011      	beq.n	f98 <TEE_BigIntConvertToS32+0x68>
/home/ocean/projects/invisiblecode/invisible-code/optee_qemu/optee_os/lib/libutee/tee_api_arith.c:220
     f74:	68fb      	ldr	r3, [r7, #12]
     f76:	9301      	str	r3, [sp, #4]
     f78:	4b0a      	ldr	r3, [pc, #40]	; (fa4 <TEE_BigIntConvertToS32+0x74>)
     f7a:	447b      	add	r3, pc
     f7c:	9300      	str	r3, [sp, #0]
     f7e:	f04f 0301 	mov.w	r3, #1
     f82:	f04f 0201 	mov.w	r2, #1
     f86:	f04f 01dc 	mov.w	r1, #220	; 0xdc
     f8a:	4807      	ldr	r0, [pc, #28]	; (fa8 <TEE_BigIntConvertToS32+0x78>)
     f8c:	4478      	add	r0, pc
     f8e:	f004 fc45 	bl	581c <trace_printf>
     f92:	68f8      	ldr	r0, [r7, #12]
     f94:	f000 fffc 	bl	1f90 <__TEE_Panic>
/home/ocean/projects/invisiblecode/invisible-code/optee_qemu/optee_os/lib/libutee/tee_api_arith.c:222
     f98:	68fb      	ldr	r3, [r7, #12]
/home/ocean/projects/invisiblecode/invisible-code/optee_qemu/optee_os/lib/libutee/tee_api_arith.c:223
     f9a:	4618      	mov	r0, r3
     f9c:	f107 0710 	add.w	r7, r7, #16
     fa0:	46bd      	mov	sp, r7
     fa2:	bd80      	pop	{r7, pc}
     fa4:	00009abe 	.word	0x00009abe
     fa8:	00009b64 	.word	0x00009b64

00000fac <TEE_BigIntCmp>:
TEE_BigIntCmp():
/home/ocean/projects/invisiblecode/invisible-code/optee_qemu/optee_os/lib/libutee/tee_api_arith.c:233
     fac:	e96d 7e02 	strd	r7, lr, [sp, #-8]!
     fb0:	b084      	sub	sp, #16
     fb2:	af00      	add	r7, sp, #0
     fb4:	6078      	str	r0, [r7, #4]
     fb6:	6039      	str	r1, [r7, #0]
/home/ocean/projects/invisiblecode/invisible-code/optee_qemu/optee_os/lib/libutee/tee_api_arith.c:234
     fb8:	687b      	ldr	r3, [r7, #4]
     fba:	60fb      	str	r3, [r7, #12]
/home/ocean/projects/invisiblecode/invisible-code/optee_qemu/optee_os/lib/libutee/tee_api_arith.c:235
     fbc:	683b      	ldr	r3, [r7, #0]
     fbe:	60bb      	str	r3, [r7, #8]
/home/ocean/projects/invisiblecode/invisible-code/optee_qemu/optee_os/lib/libutee/tee_api_arith.c:237
     fc0:	68b9      	ldr	r1, [r7, #8]
     fc2:	68f8      	ldr	r0, [r7, #12]
     fc4:	f008 fc30 	bl	9828 <mpa_cmp>
     fc8:	4603      	mov	r3, r0
/home/ocean/projects/invisiblecode/invisible-code/optee_qemu/optee_os/lib/libutee/tee_api_arith.c:238
     fca:	4618      	mov	r0, r3
     fcc:	f107 0710 	add.w	r7, r7, #16
     fd0:	46bd      	mov	sp, r7
     fd2:	bd80      	pop	{r7, pc}

00000fd4 <TEE_BigIntCmpS32>:
TEE_BigIntCmpS32():
/home/ocean/projects/invisiblecode/invisible-code/optee_qemu/optee_os/lib/libutee/tee_api_arith.c:244
     fd4:	e96d 7e02 	strd	r7, lr, [sp, #-8]!
     fd8:	b084      	sub	sp, #16
     fda:	af00      	add	r7, sp, #0
     fdc:	6078      	str	r0, [r7, #4]
     fde:	6039      	str	r1, [r7, #0]
/home/ocean/projects/invisiblecode/invisible-code/optee_qemu/optee_os/lib/libutee/tee_api_arith.c:245
     fe0:	687b      	ldr	r3, [r7, #4]
     fe2:	60fb      	str	r3, [r7, #12]
/home/ocean/projects/invisiblecode/invisible-code/optee_qemu/optee_os/lib/libutee/tee_api_arith.c:247
     fe4:	6839      	ldr	r1, [r7, #0]
     fe6:	68f8      	ldr	r0, [r7, #12]
     fe8:	f008 fc64 	bl	98b4 <mpa_cmp_short>
     fec:	4603      	mov	r3, r0
/home/ocean/projects/invisiblecode/invisible-code/optee_qemu/optee_os/lib/libutee/tee_api_arith.c:248
     fee:	4618      	mov	r0, r3
     ff0:	f107 0710 	add.w	r7, r7, #16
     ff4:	46bd      	mov	sp, r7
     ff6:	bd80      	pop	{r7, pc}

00000ff8 <TEE_BigIntShiftRight>:
TEE_BigIntShiftRight():
/home/ocean/projects/invisiblecode/invisible-code/optee_qemu/optee_os/lib/libutee/tee_api_arith.c:255
     ff8:	e96d 7e02 	strd	r7, lr, [sp, #-8]!
     ffc:	b086      	sub	sp, #24
     ffe:	af00      	add	r7, sp, #0
    1000:	60f8      	str	r0, [r7, #12]
    1002:	60b9      	str	r1, [r7, #8]
    1004:	607a      	str	r2, [r7, #4]
/home/ocean/projects/invisiblecode/invisible-code/optee_qemu/optee_os/lib/libutee/tee_api_arith.c:256
    1006:	68fb      	ldr	r3, [r7, #12]
    1008:	617b      	str	r3, [r7, #20]
/home/ocean/projects/invisiblecode/invisible-code/optee_qemu/optee_os/lib/libutee/tee_api_arith.c:257
    100a:	68bb      	ldr	r3, [r7, #8]
    100c:	613b      	str	r3, [r7, #16]
/home/ocean/projects/invisiblecode/invisible-code/optee_qemu/optee_os/lib/libutee/tee_api_arith.c:259
    100e:	687a      	ldr	r2, [r7, #4]
    1010:	6939      	ldr	r1, [r7, #16]
    1012:	6978      	ldr	r0, [r7, #20]
    1014:	f007 fd0e 	bl	8a34 <mpa_shift_right>
/home/ocean/projects/invisiblecode/invisible-code/optee_qemu/optee_os/lib/libutee/tee_api_arith.c:260
    1018:	bf00      	nop
    101a:	f107 0718 	add.w	r7, r7, #24
    101e:	46bd      	mov	sp, r7
    1020:	bd80      	pop	{r7, pc}
    1022:	bf00      	nop

00001024 <TEE_BigIntGetBit>:
TEE_BigIntGetBit():
/home/ocean/projects/invisiblecode/invisible-code/optee_qemu/optee_os/lib/libutee/tee_api_arith.c:266
    1024:	e96d 7e02 	strd	r7, lr, [sp, #-8]!
    1028:	b084      	sub	sp, #16
    102a:	af00      	add	r7, sp, #0
    102c:	6078      	str	r0, [r7, #4]
    102e:	6039      	str	r1, [r7, #0]
/home/ocean/projects/invisiblecode/invisible-code/optee_qemu/optee_os/lib/libutee/tee_api_arith.c:267
    1030:	687b      	ldr	r3, [r7, #4]
    1032:	60fb      	str	r3, [r7, #12]
/home/ocean/projects/invisiblecode/invisible-code/optee_qemu/optee_os/lib/libutee/tee_api_arith.c:269
    1034:	6839      	ldr	r1, [r7, #0]
    1036:	68f8      	ldr	r0, [r7, #12]
    1038:	f005 f824 	bl	6084 <mpa_get_bit>
    103c:	4603      	mov	r3, r0
    103e:	2b00      	cmp	r3, #0
    1040:	bf14      	ite	ne
    1042:	2301      	movne	r3, #1
    1044:	2300      	moveq	r3, #0
    1046:	b2db      	uxtb	r3, r3
/home/ocean/projects/invisiblecode/invisible-code/optee_qemu/optee_os/lib/libutee/tee_api_arith.c:270
    1048:	4618      	mov	r0, r3
    104a:	f107 0710 	add.w	r7, r7, #16
    104e:	46bd      	mov	sp, r7
    1050:	bd80      	pop	{r7, pc}
    1052:	bf00      	nop

00001054 <TEE_BigIntGetBitCount>:
TEE_BigIntGetBitCount():
/home/ocean/projects/invisiblecode/invisible-code/optee_qemu/optee_os/lib/libutee/tee_api_arith.c:276
    1054:	e96d 7e02 	strd	r7, lr, [sp, #-8]!
    1058:	b084      	sub	sp, #16
    105a:	af00      	add	r7, sp, #0
    105c:	6078      	str	r0, [r7, #4]
/home/ocean/projects/invisiblecode/invisible-code/optee_qemu/optee_os/lib/libutee/tee_api_arith.c:277
    105e:	687b      	ldr	r3, [r7, #4]
    1060:	60fb      	str	r3, [r7, #12]
/home/ocean/projects/invisiblecode/invisible-code/optee_qemu/optee_os/lib/libutee/tee_api_arith.c:279
    1062:	68f8      	ldr	r0, [r7, #12]
    1064:	f004 ffce 	bl	6004 <mpa_highest_bit_index>
    1068:	4603      	mov	r3, r0
    106a:	f103 0301 	add.w	r3, r3, #1
/home/ocean/projects/invisiblecode/invisible-code/optee_qemu/optee_os/lib/libutee/tee_api_arith.c:280
    106e:	4618      	mov	r0, r3
    1070:	f107 0710 	add.w	r7, r7, #16
    1074:	46bd      	mov	sp, r7
    1076:	bd80      	pop	{r7, pc}

00001078 <TEE_BigIntAdd>:
TEE_BigIntAdd():
/home/ocean/projects/invisiblecode/invisible-code/optee_qemu/optee_os/lib/libutee/tee_api_arith.c:291
    1078:	e96d 7e02 	strd	r7, lr, [sp, #-8]!
    107c:	b088      	sub	sp, #32
    107e:	af00      	add	r7, sp, #0
    1080:	60f8      	str	r0, [r7, #12]
    1082:	60b9      	str	r1, [r7, #8]
    1084:	607a      	str	r2, [r7, #4]
/home/ocean/projects/invisiblecode/invisible-code/optee_qemu/optee_os/lib/libutee/tee_api_arith.c:292
    1086:	68fb      	ldr	r3, [r7, #12]
    1088:	61fb      	str	r3, [r7, #28]
/home/ocean/projects/invisiblecode/invisible-code/optee_qemu/optee_os/lib/libutee/tee_api_arith.c:293
    108a:	68bb      	ldr	r3, [r7, #8]
    108c:	61bb      	str	r3, [r7, #24]
/home/ocean/projects/invisiblecode/invisible-code/optee_qemu/optee_os/lib/libutee/tee_api_arith.c:294
    108e:	687b      	ldr	r3, [r7, #4]
    1090:	617b      	str	r3, [r7, #20]
/home/ocean/projects/invisiblecode/invisible-code/optee_qemu/optee_os/lib/libutee/tee_api_arith.c:296
    1092:	4b06      	ldr	r3, [pc, #24]	; (10ac <TEE_BigIntAdd+0x34>)
    1094:	447b      	add	r3, pc
    1096:	681b      	ldr	r3, [r3, #0]
    1098:	697a      	ldr	r2, [r7, #20]
    109a:	69b9      	ldr	r1, [r7, #24]
    109c:	69f8      	ldr	r0, [r7, #28]
    109e:	f007 ffc5 	bl	902c <mpa_add>
/home/ocean/projects/invisiblecode/invisible-code/optee_qemu/optee_os/lib/libutee/tee_api_arith.c:297
    10a2:	bf00      	nop
    10a4:	f107 0720 	add.w	r7, r7, #32
    10a8:	46bd      	mov	sp, r7
    10aa:	bd80      	pop	{r7, pc}
    10ac:	0000bfe0 	.word	0x0000bfe0

000010b0 <TEE_BigIntSub>:
TEE_BigIntSub():
/home/ocean/projects/invisiblecode/invisible-code/optee_qemu/optee_os/lib/libutee/tee_api_arith.c:304
    10b0:	e96d 7e02 	strd	r7, lr, [sp, #-8]!
    10b4:	b088      	sub	sp, #32
    10b6:	af00      	add	r7, sp, #0
    10b8:	60f8      	str	r0, [r7, #12]
    10ba:	60b9      	str	r1, [r7, #8]
    10bc:	607a      	str	r2, [r7, #4]
/home/ocean/projects/invisiblecode/invisible-code/optee_qemu/optee_os/lib/libutee/tee_api_arith.c:305
    10be:	68fb      	ldr	r3, [r7, #12]
    10c0:	61fb      	str	r3, [r7, #28]
/home/ocean/projects/invisiblecode/invisible-code/optee_qemu/optee_os/lib/libutee/tee_api_arith.c:306
    10c2:	68bb      	ldr	r3, [r7, #8]
    10c4:	61bb      	str	r3, [r7, #24]
/home/ocean/projects/invisiblecode/invisible-code/optee_qemu/optee_os/lib/libutee/tee_api_arith.c:307
    10c6:	687b      	ldr	r3, [r7, #4]
    10c8:	617b      	str	r3, [r7, #20]
/home/ocean/projects/invisiblecode/invisible-code/optee_qemu/optee_os/lib/libutee/tee_api_arith.c:309
    10ca:	4b06      	ldr	r3, [pc, #24]	; (10e4 <TEE_BigIntSub+0x34>)
    10cc:	447b      	add	r3, pc
    10ce:	681b      	ldr	r3, [r3, #0]
    10d0:	697a      	ldr	r2, [r7, #20]
    10d2:	69b9      	ldr	r1, [r7, #24]
    10d4:	69f8      	ldr	r0, [r7, #28]
    10d6:	f008 f897 	bl	9208 <mpa_sub>
/home/ocean/projects/invisiblecode/invisible-code/optee_qemu/optee_os/lib/libutee/tee_api_arith.c:310
    10da:	bf00      	nop
    10dc:	f107 0720 	add.w	r7, r7, #32
    10e0:	46bd      	mov	sp, r7
    10e2:	bd80      	pop	{r7, pc}
    10e4:	0000bfa8 	.word	0x0000bfa8

000010e8 <TEE_BigIntNeg>:
TEE_BigIntNeg():
/home/ocean/projects/invisiblecode/invisible-code/optee_qemu/optee_os/lib/libutee/tee_api_arith.c:316
    10e8:	e96d 7e02 	strd	r7, lr, [sp, #-8]!
    10ec:	b084      	sub	sp, #16
    10ee:	af00      	add	r7, sp, #0
    10f0:	6078      	str	r0, [r7, #4]
    10f2:	6039      	str	r1, [r7, #0]
/home/ocean/projects/invisiblecode/invisible-code/optee_qemu/optee_os/lib/libutee/tee_api_arith.c:317
    10f4:	687b      	ldr	r3, [r7, #4]
    10f6:	60fb      	str	r3, [r7, #12]
/home/ocean/projects/invisiblecode/invisible-code/optee_qemu/optee_os/lib/libutee/tee_api_arith.c:318
    10f8:	683b      	ldr	r3, [r7, #0]
    10fa:	60bb      	str	r3, [r7, #8]
/home/ocean/projects/invisiblecode/invisible-code/optee_qemu/optee_os/lib/libutee/tee_api_arith.c:320
    10fc:	68b9      	ldr	r1, [r7, #8]
    10fe:	68f8      	ldr	r0, [r7, #12]
    1100:	f008 f984 	bl	940c <mpa_neg>
/home/ocean/projects/invisiblecode/invisible-code/optee_qemu/optee_os/lib/libutee/tee_api_arith.c:321
    1104:	bf00      	nop
    1106:	f107 0710 	add.w	r7, r7, #16
    110a:	46bd      	mov	sp, r7
    110c:	bd80      	pop	{r7, pc}
    110e:	bf00      	nop

00001110 <TEE_BigIntMul>:
TEE_BigIntMul():
/home/ocean/projects/invisiblecode/invisible-code/optee_qemu/optee_os/lib/libutee/tee_api_arith.c:328
    1110:	e96d 7e02 	strd	r7, lr, [sp, #-8]!
    1114:	b088      	sub	sp, #32
    1116:	af00      	add	r7, sp, #0
    1118:	60f8      	str	r0, [r7, #12]
    111a:	60b9      	str	r1, [r7, #8]
    111c:	607a      	str	r2, [r7, #4]
/home/ocean/projects/invisiblecode/invisible-code/optee_qemu/optee_os/lib/libutee/tee_api_arith.c:329
    111e:	68fb      	ldr	r3, [r7, #12]
    1120:	61fb      	str	r3, [r7, #28]
/home/ocean/projects/invisiblecode/invisible-code/optee_qemu/optee_os/lib/libutee/tee_api_arith.c:330
    1122:	68bb      	ldr	r3, [r7, #8]
    1124:	61bb      	str	r3, [r7, #24]
/home/ocean/projects/invisiblecode/invisible-code/optee_qemu/optee_os/lib/libutee/tee_api_arith.c:331
    1126:	687b      	ldr	r3, [r7, #4]
    1128:	617b      	str	r3, [r7, #20]
/home/ocean/projects/invisiblecode/invisible-code/optee_qemu/optee_os/lib/libutee/tee_api_arith.c:333
    112a:	4b06      	ldr	r3, [pc, #24]	; (1144 <TEE_BigIntMul+0x34>)
    112c:	447b      	add	r3, pc
    112e:	681b      	ldr	r3, [r3, #0]
    1130:	697a      	ldr	r2, [r7, #20]
    1132:	69b9      	ldr	r1, [r7, #24]
    1134:	69f8      	ldr	r0, [r7, #28]
    1136:	f007 f931 	bl	839c <mpa_mul>
/home/ocean/projects/invisiblecode/invisible-code/optee_qemu/optee_os/lib/libutee/tee_api_arith.c:334
    113a:	bf00      	nop
    113c:	f107 0720 	add.w	r7, r7, #32
    1140:	46bd      	mov	sp, r7
    1142:	bd80      	pop	{r7, pc}
    1144:	0000bf48 	.word	0x0000bf48

00001148 <TEE_BigIntSquare>:
TEE_BigIntSquare():
/home/ocean/projects/invisiblecode/invisible-code/optee_qemu/optee_os/lib/libutee/tee_api_arith.c:340
    1148:	e96d 7e02 	strd	r7, lr, [sp, #-8]!
    114c:	b084      	sub	sp, #16
    114e:	af00      	add	r7, sp, #0
    1150:	6078      	str	r0, [r7, #4]
    1152:	6039      	str	r1, [r7, #0]
/home/ocean/projects/invisiblecode/invisible-code/optee_qemu/optee_os/lib/libutee/tee_api_arith.c:341
    1154:	687b      	ldr	r3, [r7, #4]
    1156:	60fb      	str	r3, [r7, #12]
/home/ocean/projects/invisiblecode/invisible-code/optee_qemu/optee_os/lib/libutee/tee_api_arith.c:342
    1158:	683b      	ldr	r3, [r7, #0]
    115a:	60bb      	str	r3, [r7, #8]
/home/ocean/projects/invisiblecode/invisible-code/optee_qemu/optee_os/lib/libutee/tee_api_arith.c:344
    115c:	4b06      	ldr	r3, [pc, #24]	; (1178 <TEE_BigIntSquare+0x30>)
    115e:	447b      	add	r3, pc
    1160:	681b      	ldr	r3, [r3, #0]
    1162:	68ba      	ldr	r2, [r7, #8]
    1164:	68b9      	ldr	r1, [r7, #8]
    1166:	68f8      	ldr	r0, [r7, #12]
    1168:	f007 f918 	bl	839c <mpa_mul>
/home/ocean/projects/invisiblecode/invisible-code/optee_qemu/optee_os/lib/libutee/tee_api_arith.c:345
    116c:	bf00      	nop
    116e:	f107 0710 	add.w	r7, r7, #16
    1172:	46bd      	mov	sp, r7
    1174:	bd80      	pop	{r7, pc}
    1176:	bf00      	nop
    1178:	0000bf16 	.word	0x0000bf16

0000117c <TEE_BigIntDiv>:
TEE_BigIntDiv():
/home/ocean/projects/invisiblecode/invisible-code/optee_qemu/optee_os/lib/libutee/tee_api_arith.c:352
    117c:	e96d 7e02 	strd	r7, lr, [sp, #-8]!
    1180:	b08a      	sub	sp, #40	; 0x28
    1182:	af02      	add	r7, sp, #8
    1184:	60f8      	str	r0, [r7, #12]
    1186:	60b9      	str	r1, [r7, #8]
    1188:	607a      	str	r2, [r7, #4]
    118a:	603b      	str	r3, [r7, #0]
/home/ocean/projects/invisiblecode/invisible-code/optee_qemu/optee_os/lib/libutee/tee_api_arith.c:353
    118c:	68fb      	ldr	r3, [r7, #12]
    118e:	61fb      	str	r3, [r7, #28]
/home/ocean/projects/invisiblecode/invisible-code/optee_qemu/optee_os/lib/libutee/tee_api_arith.c:354
    1190:	68bb      	ldr	r3, [r7, #8]
    1192:	61bb      	str	r3, [r7, #24]
/home/ocean/projects/invisiblecode/invisible-code/optee_qemu/optee_os/lib/libutee/tee_api_arith.c:355
    1194:	687b      	ldr	r3, [r7, #4]
    1196:	617b      	str	r3, [r7, #20]
/home/ocean/projects/invisiblecode/invisible-code/optee_qemu/optee_os/lib/libutee/tee_api_arith.c:356
    1198:	683b      	ldr	r3, [r7, #0]
    119a:	613b      	str	r3, [r7, #16]
/home/ocean/projects/invisiblecode/invisible-code/optee_qemu/optee_os/lib/libutee/tee_api_arith.c:358
    119c:	f04f 0100 	mov.w	r1, #0
    11a0:	6838      	ldr	r0, [r7, #0]
    11a2:	f7ff ff17 	bl	fd4 <TEE_BigIntCmpS32>
    11a6:	4603      	mov	r3, r0
    11a8:	2b00      	cmp	r3, #0
    11aa:	d104      	bne.n	11b6 <TEE_BigIntDiv+0x3a>
/home/ocean/projects/invisiblecode/invisible-code/optee_qemu/optee_os/lib/libutee/tee_api_arith.c:359
    11ac:	4b09      	ldr	r3, [pc, #36]	; (11d4 <TEE_BigIntDiv+0x58>)
    11ae:	447b      	add	r3, pc
    11b0:	4618      	mov	r0, r3
    11b2:	f7ff fd4f 	bl	c54 <TEE_BigInt_Panic>
/home/ocean/projects/invisiblecode/invisible-code/optee_qemu/optee_os/lib/libutee/tee_api_arith.c:361
    11b6:	4b08      	ldr	r3, [pc, #32]	; (11d8 <TEE_BigIntDiv+0x5c>)
    11b8:	447b      	add	r3, pc
    11ba:	681b      	ldr	r3, [r3, #0]
    11bc:	9300      	str	r3, [sp, #0]
    11be:	693b      	ldr	r3, [r7, #16]
    11c0:	697a      	ldr	r2, [r7, #20]
    11c2:	69b9      	ldr	r1, [r7, #24]
    11c4:	69f8      	ldr	r0, [r7, #28]
    11c6:	f006 f9f9 	bl	75bc <mpa_div>
/home/ocean/projects/invisiblecode/invisible-code/optee_qemu/optee_os/lib/libutee/tee_api_arith.c:362
    11ca:	bf00      	nop
    11cc:	f107 0720 	add.w	r7, r7, #32
    11d0:	46bd      	mov	sp, r7
    11d2:	bd80      	pop	{r7, pc}
    11d4:	00009896 	.word	0x00009896
    11d8:	0000bebc 	.word	0x0000bebc

000011dc <TEE_BigIntMod>:
TEE_BigIntMod():
/home/ocean/projects/invisiblecode/invisible-code/optee_qemu/optee_os/lib/libutee/tee_api_arith.c:373
    11dc:	e96d 7e02 	strd	r7, lr, [sp, #-8]!
    11e0:	b088      	sub	sp, #32
    11e2:	af00      	add	r7, sp, #0
    11e4:	60f8      	str	r0, [r7, #12]
    11e6:	60b9      	str	r1, [r7, #8]
    11e8:	607a      	str	r2, [r7, #4]
/home/ocean/projects/invisiblecode/invisible-code/optee_qemu/optee_os/lib/libutee/tee_api_arith.c:374
    11ea:	68fb      	ldr	r3, [r7, #12]
    11ec:	61fb      	str	r3, [r7, #28]
/home/ocean/projects/invisiblecode/invisible-code/optee_qemu/optee_os/lib/libutee/tee_api_arith.c:375
    11ee:	68bb      	ldr	r3, [r7, #8]
    11f0:	61bb      	str	r3, [r7, #24]
/home/ocean/projects/invisiblecode/invisible-code/optee_qemu/optee_os/lib/libutee/tee_api_arith.c:376
    11f2:	687b      	ldr	r3, [r7, #4]
    11f4:	617b      	str	r3, [r7, #20]
/home/ocean/projects/invisiblecode/invisible-code/optee_qemu/optee_os/lib/libutee/tee_api_arith.c:378
    11f6:	f04f 0102 	mov.w	r1, #2
    11fa:	6878      	ldr	r0, [r7, #4]
    11fc:	f7ff feea 	bl	fd4 <TEE_BigIntCmpS32>
    1200:	4603      	mov	r3, r0
    1202:	2b00      	cmp	r3, #0
    1204:	da04      	bge.n	1210 <TEE_BigIntMod+0x34>
/home/ocean/projects/invisiblecode/invisible-code/optee_qemu/optee_os/lib/libutee/tee_api_arith.c:379
    1206:	4b11      	ldr	r3, [pc, #68]	; (124c <TEE_BigIntMod+0x70>)
    1208:	447b      	add	r3, pc
    120a:	4618      	mov	r0, r3
    120c:	f7ff fd22 	bl	c54 <TEE_BigInt_Panic>
/home/ocean/projects/invisiblecode/invisible-code/optee_qemu/optee_os/lib/libutee/tee_api_arith.c:381
    1210:	4b0f      	ldr	r3, [pc, #60]	; (1250 <TEE_BigIntMod+0x74>)
    1212:	447b      	add	r3, pc
    1214:	681b      	ldr	r3, [r3, #0]
    1216:	697a      	ldr	r2, [r7, #20]
    1218:	69b9      	ldr	r1, [r7, #24]
    121a:	69f8      	ldr	r0, [r7, #28]
    121c:	f009 f9dc 	bl	a5d8 <mpa_mod>
/home/ocean/projects/invisiblecode/invisible-code/optee_qemu/optee_os/lib/libutee/tee_api_arith.c:383
    1220:	f04f 0100 	mov.w	r1, #0
    1224:	69f8      	ldr	r0, [r7, #28]
    1226:	f008 fb45 	bl	98b4 <mpa_cmp_short>
    122a:	4603      	mov	r3, r0
    122c:	2b00      	cmp	r3, #0
    122e:	da07      	bge.n	1240 <TEE_BigIntMod+0x64>
/home/ocean/projects/invisiblecode/invisible-code/optee_qemu/optee_os/lib/libutee/tee_api_arith.c:384
    1230:	4b08      	ldr	r3, [pc, #32]	; (1254 <TEE_BigIntMod+0x78>)
    1232:	447b      	add	r3, pc
    1234:	681b      	ldr	r3, [r3, #0]
    1236:	697a      	ldr	r2, [r7, #20]
    1238:	69f9      	ldr	r1, [r7, #28]
    123a:	69f8      	ldr	r0, [r7, #28]
    123c:	f007 fef6 	bl	902c <mpa_add>
/home/ocean/projects/invisiblecode/invisible-code/optee_qemu/optee_os/lib/libutee/tee_api_arith.c:385
    1240:	bf00      	nop
    1242:	f107 0720 	add.w	r7, r7, #32
    1246:	46bd      	mov	sp, r7
    1248:	bd80      	pop	{r7, pc}
    124a:	bf00      	nop
    124c:	0000984c 	.word	0x0000984c
    1250:	0000be62 	.word	0x0000be62
    1254:	0000be42 	.word	0x0000be42

00001258 <TEE_BigIntAddMod>:
TEE_BigIntAddMod():
/home/ocean/projects/invisiblecode/invisible-code/optee_qemu/optee_os/lib/libutee/tee_api_arith.c:392
    1258:	e96d 7e02 	strd	r7, lr, [sp, #-8]!
    125c:	b08a      	sub	sp, #40	; 0x28
    125e:	af02      	add	r7, sp, #8
    1260:	60f8      	str	r0, [r7, #12]
    1262:	60b9      	str	r1, [r7, #8]
    1264:	607a      	str	r2, [r7, #4]
    1266:	603b      	str	r3, [r7, #0]
/home/ocean/projects/invisiblecode/invisible-code/optee_qemu/optee_os/lib/libutee/tee_api_arith.c:393
    1268:	68fb      	ldr	r3, [r7, #12]
    126a:	61fb      	str	r3, [r7, #28]
/home/ocean/projects/invisiblecode/invisible-code/optee_qemu/optee_os/lib/libutee/tee_api_arith.c:394
    126c:	68bb      	ldr	r3, [r7, #8]
    126e:	61bb      	str	r3, [r7, #24]
/home/ocean/projects/invisiblecode/invisible-code/optee_qemu/optee_os/lib/libutee/tee_api_arith.c:395
    1270:	687b      	ldr	r3, [r7, #4]
    1272:	617b      	str	r3, [r7, #20]
/home/ocean/projects/invisiblecode/invisible-code/optee_qemu/optee_os/lib/libutee/tee_api_arith.c:396
    1274:	683b      	ldr	r3, [r7, #0]
    1276:	613b      	str	r3, [r7, #16]
/home/ocean/projects/invisiblecode/invisible-code/optee_qemu/optee_os/lib/libutee/tee_api_arith.c:398
    1278:	f04f 0102 	mov.w	r1, #2
    127c:	6838      	ldr	r0, [r7, #0]
    127e:	f7ff fea9 	bl	fd4 <TEE_BigIntCmpS32>
    1282:	4603      	mov	r3, r0
    1284:	2b00      	cmp	r3, #0
    1286:	da04      	bge.n	1292 <TEE_BigIntAddMod+0x3a>
/home/ocean/projects/invisiblecode/invisible-code/optee_qemu/optee_os/lib/libutee/tee_api_arith.c:399
    1288:	4b11      	ldr	r3, [pc, #68]	; (12d0 <TEE_BigIntAddMod+0x78>)
    128a:	447b      	add	r3, pc
    128c:	4618      	mov	r0, r3
    128e:	f7ff fce1 	bl	c54 <TEE_BigInt_Panic>
/home/ocean/projects/invisiblecode/invisible-code/optee_qemu/optee_os/lib/libutee/tee_api_arith.c:401
    1292:	4b10      	ldr	r3, [pc, #64]	; (12d4 <TEE_BigIntAddMod+0x7c>)
    1294:	447b      	add	r3, pc
    1296:	681b      	ldr	r3, [r3, #0]
    1298:	9300      	str	r3, [sp, #0]
    129a:	693b      	ldr	r3, [r7, #16]
    129c:	697a      	ldr	r2, [r7, #20]
    129e:	69b9      	ldr	r1, [r7, #24]
    12a0:	69f8      	ldr	r0, [r7, #28]
    12a2:	f009 f9af 	bl	a604 <mpa_add_mod>
/home/ocean/projects/invisiblecode/invisible-code/optee_qemu/optee_os/lib/libutee/tee_api_arith.c:402
    12a6:	f04f 0100 	mov.w	r1, #0
    12aa:	69f8      	ldr	r0, [r7, #28]
    12ac:	f008 fb02 	bl	98b4 <mpa_cmp_short>
    12b0:	4603      	mov	r3, r0
    12b2:	2b00      	cmp	r3, #0
    12b4:	da07      	bge.n	12c6 <TEE_BigIntAddMod+0x6e>
/home/ocean/projects/invisiblecode/invisible-code/optee_qemu/optee_os/lib/libutee/tee_api_arith.c:403
    12b6:	4b08      	ldr	r3, [pc, #32]	; (12d8 <TEE_BigIntAddMod+0x80>)
    12b8:	447b      	add	r3, pc
    12ba:	681b      	ldr	r3, [r3, #0]
    12bc:	693a      	ldr	r2, [r7, #16]
    12be:	69f9      	ldr	r1, [r7, #28]
    12c0:	69f8      	ldr	r0, [r7, #28]
    12c2:	f007 feb3 	bl	902c <mpa_add>
/home/ocean/projects/invisiblecode/invisible-code/optee_qemu/optee_os/lib/libutee/tee_api_arith.c:404
    12c6:	bf00      	nop
    12c8:	f107 0720 	add.w	r7, r7, #32
    12cc:	46bd      	mov	sp, r7
    12ce:	bd80      	pop	{r7, pc}
    12d0:	000097ca 	.word	0x000097ca
    12d4:	0000bde0 	.word	0x0000bde0
    12d8:	0000bdbc 	.word	0x0000bdbc

000012dc <TEE_BigIntSubMod>:
TEE_BigIntSubMod():
/home/ocean/projects/invisiblecode/invisible-code/optee_qemu/optee_os/lib/libutee/tee_api_arith.c:411
    12dc:	e96d 7e02 	strd	r7, lr, [sp, #-8]!
    12e0:	b08a      	sub	sp, #40	; 0x28
    12e2:	af02      	add	r7, sp, #8
    12e4:	60f8      	str	r0, [r7, #12]
    12e6:	60b9      	str	r1, [r7, #8]
    12e8:	607a      	str	r2, [r7, #4]
    12ea:	603b      	str	r3, [r7, #0]
/home/ocean/projects/invisiblecode/invisible-code/optee_qemu/optee_os/lib/libutee/tee_api_arith.c:412
    12ec:	68fb      	ldr	r3, [r7, #12]
    12ee:	61fb      	str	r3, [r7, #28]
/home/ocean/projects/invisiblecode/invisible-code/optee_qemu/optee_os/lib/libutee/tee_api_arith.c:413
    12f0:	68bb      	ldr	r3, [r7, #8]
    12f2:	61bb      	str	r3, [r7, #24]
/home/ocean/projects/invisiblecode/invisible-code/optee_qemu/optee_os/lib/libutee/tee_api_arith.c:414
    12f4:	687b      	ldr	r3, [r7, #4]
    12f6:	617b      	str	r3, [r7, #20]
/home/ocean/projects/invisiblecode/invisible-code/optee_qemu/optee_os/lib/libutee/tee_api_arith.c:415
    12f8:	683b      	ldr	r3, [r7, #0]
    12fa:	613b      	str	r3, [r7, #16]
/home/ocean/projects/invisiblecode/invisible-code/optee_qemu/optee_os/lib/libutee/tee_api_arith.c:417
    12fc:	f04f 0102 	mov.w	r1, #2
    1300:	6838      	ldr	r0, [r7, #0]
    1302:	f7ff fe67 	bl	fd4 <TEE_BigIntCmpS32>
    1306:	4603      	mov	r3, r0
    1308:	2b00      	cmp	r3, #0
    130a:	da04      	bge.n	1316 <TEE_BigIntSubMod+0x3a>
/home/ocean/projects/invisiblecode/invisible-code/optee_qemu/optee_os/lib/libutee/tee_api_arith.c:418
    130c:	4b11      	ldr	r3, [pc, #68]	; (1354 <TEE_BigIntSubMod+0x78>)
    130e:	447b      	add	r3, pc
    1310:	4618      	mov	r0, r3
    1312:	f7ff fc9f 	bl	c54 <TEE_BigInt_Panic>
/home/ocean/projects/invisiblecode/invisible-code/optee_qemu/optee_os/lib/libutee/tee_api_arith.c:420
    1316:	4b10      	ldr	r3, [pc, #64]	; (1358 <TEE_BigIntSubMod+0x7c>)
    1318:	447b      	add	r3, pc
    131a:	681b      	ldr	r3, [r3, #0]
    131c:	9300      	str	r3, [sp, #0]
    131e:	693b      	ldr	r3, [r7, #16]
    1320:	697a      	ldr	r2, [r7, #20]
    1322:	69b9      	ldr	r1, [r7, #24]
    1324:	69f8      	ldr	r0, [r7, #28]
    1326:	f009 f995 	bl	a654 <mpa_sub_mod>
/home/ocean/projects/invisiblecode/invisible-code/optee_qemu/optee_os/lib/libutee/tee_api_arith.c:421
    132a:	f04f 0100 	mov.w	r1, #0
    132e:	69f8      	ldr	r0, [r7, #28]
    1330:	f008 fac0 	bl	98b4 <mpa_cmp_short>
    1334:	4603      	mov	r3, r0
    1336:	2b00      	cmp	r3, #0
    1338:	da07      	bge.n	134a <TEE_BigIntSubMod+0x6e>
/home/ocean/projects/invisiblecode/invisible-code/optee_qemu/optee_os/lib/libutee/tee_api_arith.c:422
    133a:	4b08      	ldr	r3, [pc, #32]	; (135c <TEE_BigIntSubMod+0x80>)
    133c:	447b      	add	r3, pc
    133e:	681b      	ldr	r3, [r3, #0]
    1340:	693a      	ldr	r2, [r7, #16]
    1342:	69f9      	ldr	r1, [r7, #28]
    1344:	69f8      	ldr	r0, [r7, #28]
    1346:	f007 fe71 	bl	902c <mpa_add>
/home/ocean/projects/invisiblecode/invisible-code/optee_qemu/optee_os/lib/libutee/tee_api_arith.c:423
    134a:	bf00      	nop
    134c:	f107 0720 	add.w	r7, r7, #32
    1350:	46bd      	mov	sp, r7
    1352:	bd80      	pop	{r7, pc}
    1354:	00009746 	.word	0x00009746
    1358:	0000bd5c 	.word	0x0000bd5c
    135c:	0000bd38 	.word	0x0000bd38

00001360 <TEE_BigIntMulMod>:
TEE_BigIntMulMod():
/home/ocean/projects/invisiblecode/invisible-code/optee_qemu/optee_os/lib/libutee/tee_api_arith.c:430
    1360:	e96d 7e02 	strd	r7, lr, [sp, #-8]!
    1364:	b08c      	sub	sp, #48	; 0x30
    1366:	af02      	add	r7, sp, #8
    1368:	60f8      	str	r0, [r7, #12]
    136a:	60b9      	str	r1, [r7, #8]
    136c:	607a      	str	r2, [r7, #4]
    136e:	603b      	str	r3, [r7, #0]
/home/ocean/projects/invisiblecode/invisible-code/optee_qemu/optee_os/lib/libutee/tee_api_arith.c:431
    1370:	68fb      	ldr	r3, [r7, #12]
    1372:	627b      	str	r3, [r7, #36]	; 0x24
/home/ocean/projects/invisiblecode/invisible-code/optee_qemu/optee_os/lib/libutee/tee_api_arith.c:432
    1374:	68bb      	ldr	r3, [r7, #8]
    1376:	623b      	str	r3, [r7, #32]
/home/ocean/projects/invisiblecode/invisible-code/optee_qemu/optee_os/lib/libutee/tee_api_arith.c:433
    1378:	687b      	ldr	r3, [r7, #4]
    137a:	61fb      	str	r3, [r7, #28]
/home/ocean/projects/invisiblecode/invisible-code/optee_qemu/optee_os/lib/libutee/tee_api_arith.c:434
    137c:	683b      	ldr	r3, [r7, #0]
    137e:	61bb      	str	r3, [r7, #24]
/home/ocean/projects/invisiblecode/invisible-code/optee_qemu/optee_os/lib/libutee/tee_api_arith.c:437
    1380:	f04f 0102 	mov.w	r1, #2
    1384:	6838      	ldr	r0, [r7, #0]
    1386:	f7ff fe25 	bl	fd4 <TEE_BigIntCmpS32>
    138a:	4603      	mov	r3, r0
    138c:	2b00      	cmp	r3, #0
    138e:	da04      	bge.n	139a <TEE_BigIntMulMod+0x3a>
/home/ocean/projects/invisiblecode/invisible-code/optee_qemu/optee_os/lib/libutee/tee_api_arith.c:438
    1390:	4b1d      	ldr	r3, [pc, #116]	; (1408 <TEE_BigIntMulMod+0xa8>)
    1392:	447b      	add	r3, pc
    1394:	4618      	mov	r0, r3
    1396:	f7ff fc5d 	bl	c54 <TEE_BigInt_Panic>
/home/ocean/projects/invisiblecode/invisible-code/optee_qemu/optee_os/lib/libutee/tee_api_arith.c:448
    139a:	4b1c      	ldr	r3, [pc, #112]	; (140c <TEE_BigIntMulMod+0xac>)
    139c:	447b      	add	r3, pc
    139e:	681a      	ldr	r2, [r3, #0]
    13a0:	f107 0314 	add.w	r3, r7, #20
    13a4:	4611      	mov	r1, r2
    13a6:	4618      	mov	r0, r3
    13a8:	f006 fe3c 	bl	8024 <mpa_alloc_static_temp_var>
/home/ocean/projects/invisiblecode/invisible-code/optee_qemu/optee_os/lib/libutee/tee_api_arith.c:449
    13ac:	6978      	ldr	r0, [r7, #20]
    13ae:	4b18      	ldr	r3, [pc, #96]	; (1410 <TEE_BigIntMulMod+0xb0>)
    13b0:	447b      	add	r3, pc
    13b2:	681b      	ldr	r3, [r3, #0]
    13b4:	9300      	str	r3, [sp, #0]
    13b6:	69bb      	ldr	r3, [r7, #24]
    13b8:	69fa      	ldr	r2, [r7, #28]
    13ba:	6a39      	ldr	r1, [r7, #32]
    13bc:	f009 f972 	bl	a6a4 <mpa_mul_mod>
/home/ocean/projects/invisiblecode/invisible-code/optee_qemu/optee_os/lib/libutee/tee_api_arith.c:450
    13c0:	697b      	ldr	r3, [r7, #20]
    13c2:	f04f 0100 	mov.w	r1, #0
    13c6:	4618      	mov	r0, r3
    13c8:	f008 fa74 	bl	98b4 <mpa_cmp_short>
    13cc:	4603      	mov	r3, r0
    13ce:	2b00      	cmp	r3, #0
    13d0:	da07      	bge.n	13e2 <TEE_BigIntMulMod+0x82>
/home/ocean/projects/invisiblecode/invisible-code/optee_qemu/optee_os/lib/libutee/tee_api_arith.c:451
    13d2:	6978      	ldr	r0, [r7, #20]
    13d4:	6979      	ldr	r1, [r7, #20]
    13d6:	4b0f      	ldr	r3, [pc, #60]	; (1414 <TEE_BigIntMulMod+0xb4>)
    13d8:	447b      	add	r3, pc
    13da:	681b      	ldr	r3, [r3, #0]
    13dc:	69ba      	ldr	r2, [r7, #24]
    13de:	f007 fe25 	bl	902c <mpa_add>
/home/ocean/projects/invisiblecode/invisible-code/optee_qemu/optee_os/lib/libutee/tee_api_arith.c:452
    13e2:	697b      	ldr	r3, [r7, #20]
    13e4:	4619      	mov	r1, r3
    13e6:	6a78      	ldr	r0, [r7, #36]	; 0x24
    13e8:	f004 fdce 	bl	5f88 <mpa_copy>
/home/ocean/projects/invisiblecode/invisible-code/optee_qemu/optee_os/lib/libutee/tee_api_arith.c:453
    13ec:	4b0a      	ldr	r3, [pc, #40]	; (1418 <TEE_BigIntMulMod+0xb8>)
    13ee:	447b      	add	r3, pc
    13f0:	681a      	ldr	r2, [r3, #0]
    13f2:	f107 0314 	add.w	r3, r7, #20
    13f6:	4611      	mov	r1, r2
    13f8:	4618      	mov	r0, r3
    13fa:	f006 fe27 	bl	804c <mpa_free_static_temp_var>
/home/ocean/projects/invisiblecode/invisible-code/optee_qemu/optee_os/lib/libutee/tee_api_arith.c:454
    13fe:	bf00      	nop
    1400:	f107 0728 	add.w	r7, r7, #40	; 0x28
    1404:	46bd      	mov	sp, r7
    1406:	bd80      	pop	{r7, pc}
    1408:	000096c2 	.word	0x000096c2
    140c:	0000bcd8 	.word	0x0000bcd8
    1410:	0000bcc4 	.word	0x0000bcc4
    1414:	0000bc9c 	.word	0x0000bc9c
    1418:	0000bc86 	.word	0x0000bc86

0000141c <TEE_BigIntSquareMod>:
TEE_BigIntSquareMod():
/home/ocean/projects/invisiblecode/invisible-code/optee_qemu/optee_os/lib/libutee/tee_api_arith.c:461
    141c:	e96d 7e02 	strd	r7, lr, [sp, #-8]!
    1420:	b084      	sub	sp, #16
    1422:	af00      	add	r7, sp, #0
    1424:	60f8      	str	r0, [r7, #12]
    1426:	60b9      	str	r1, [r7, #8]
    1428:	607a      	str	r2, [r7, #4]
/home/ocean/projects/invisiblecode/invisible-code/optee_qemu/optee_os/lib/libutee/tee_api_arith.c:462
    142a:	687b      	ldr	r3, [r7, #4]
    142c:	68ba      	ldr	r2, [r7, #8]
    142e:	68b9      	ldr	r1, [r7, #8]
    1430:	68f8      	ldr	r0, [r7, #12]
    1432:	f7ff ff95 	bl	1360 <TEE_BigIntMulMod>
/home/ocean/projects/invisiblecode/invisible-code/optee_qemu/optee_os/lib/libutee/tee_api_arith.c:463
    1436:	bf00      	nop
    1438:	f107 0710 	add.w	r7, r7, #16
    143c:	46bd      	mov	sp, r7
    143e:	bd80      	pop	{r7, pc}

00001440 <TEE_BigIntInvMod>:
TEE_BigIntInvMod():
/home/ocean/projects/invisiblecode/invisible-code/optee_qemu/optee_os/lib/libutee/tee_api_arith.c:470
    1440:	e96d 7e02 	strd	r7, lr, [sp, #-8]!
    1444:	b088      	sub	sp, #32
    1446:	af00      	add	r7, sp, #0
    1448:	60f8      	str	r0, [r7, #12]
    144a:	60b9      	str	r1, [r7, #8]
    144c:	607a      	str	r2, [r7, #4]
/home/ocean/projects/invisiblecode/invisible-code/optee_qemu/optee_os/lib/libutee/tee_api_arith.c:471
    144e:	68fb      	ldr	r3, [r7, #12]
    1450:	61fb      	str	r3, [r7, #28]
/home/ocean/projects/invisiblecode/invisible-code/optee_qemu/optee_os/lib/libutee/tee_api_arith.c:472
    1452:	68bb      	ldr	r3, [r7, #8]
    1454:	61bb      	str	r3, [r7, #24]
/home/ocean/projects/invisiblecode/invisible-code/optee_qemu/optee_os/lib/libutee/tee_api_arith.c:473
    1456:	687b      	ldr	r3, [r7, #4]
    1458:	617b      	str	r3, [r7, #20]
/home/ocean/projects/invisiblecode/invisible-code/optee_qemu/optee_os/lib/libutee/tee_api_arith.c:475
    145a:	f04f 0102 	mov.w	r1, #2
    145e:	6878      	ldr	r0, [r7, #4]
    1460:	f7ff fdb8 	bl	fd4 <TEE_BigIntCmpS32>
    1464:	4603      	mov	r3, r0
    1466:	2b00      	cmp	r3, #0
    1468:	db07      	blt.n	147a <TEE_BigIntInvMod+0x3a>
/home/ocean/projects/invisiblecode/invisible-code/optee_qemu/optee_os/lib/libutee/tee_api_arith.c:475 (discriminator 1)
    146a:	f04f 0100 	mov.w	r1, #0
    146e:	68b8      	ldr	r0, [r7, #8]
    1470:	f7ff fdb0 	bl	fd4 <TEE_BigIntCmpS32>
    1474:	4603      	mov	r3, r0
    1476:	2b00      	cmp	r3, #0
    1478:	d104      	bne.n	1484 <TEE_BigIntInvMod+0x44>
/home/ocean/projects/invisiblecode/invisible-code/optee_qemu/optee_os/lib/libutee/tee_api_arith.c:476
    147a:	4b09      	ldr	r3, [pc, #36]	; (14a0 <TEE_BigIntInvMod+0x60>)
    147c:	447b      	add	r3, pc
    147e:	4618      	mov	r0, r3
    1480:	f7ff fbe8 	bl	c54 <TEE_BigInt_Panic>
/home/ocean/projects/invisiblecode/invisible-code/optee_qemu/optee_os/lib/libutee/tee_api_arith.c:478
    1484:	4b07      	ldr	r3, [pc, #28]	; (14a4 <TEE_BigIntInvMod+0x64>)
    1486:	447b      	add	r3, pc
    1488:	681b      	ldr	r3, [r3, #0]
    148a:	697a      	ldr	r2, [r7, #20]
    148c:	69b9      	ldr	r1, [r7, #24]
    148e:	69f8      	ldr	r0, [r7, #28]
    1490:	f009 f930 	bl	a6f4 <mpa_inv_mod>
/home/ocean/projects/invisiblecode/invisible-code/optee_qemu/optee_os/lib/libutee/tee_api_arith.c:479
    1494:	bf00      	nop
    1496:	f107 0720 	add.w	r7, r7, #32
    149a:	46bd      	mov	sp, r7
    149c:	bd80      	pop	{r7, pc}
    149e:	bf00      	nop
    14a0:	000095f0 	.word	0x000095f0
    14a4:	0000bbee 	.word	0x0000bbee

000014a8 <TEE_BigIntRelativePrime>:
TEE_BigIntRelativePrime():
/home/ocean/projects/invisiblecode/invisible-code/optee_qemu/optee_os/lib/libutee/tee_api_arith.c:489
    14a8:	e96d 7e02 	strd	r7, lr, [sp, #-8]!
    14ac:	b086      	sub	sp, #24
    14ae:	af00      	add	r7, sp, #0
    14b0:	6078      	str	r0, [r7, #4]
    14b2:	6039      	str	r1, [r7, #0]
/home/ocean/projects/invisiblecode/invisible-code/optee_qemu/optee_os/lib/libutee/tee_api_arith.c:490
    14b4:	687b      	ldr	r3, [r7, #4]
    14b6:	617b      	str	r3, [r7, #20]
/home/ocean/projects/invisiblecode/invisible-code/optee_qemu/optee_os/lib/libutee/tee_api_arith.c:491
    14b8:	683b      	ldr	r3, [r7, #0]
    14ba:	613b      	str	r3, [r7, #16]
/home/ocean/projects/invisiblecode/invisible-code/optee_qemu/optee_os/lib/libutee/tee_api_arith.c:495
    14bc:	4b16      	ldr	r3, [pc, #88]	; (1518 <TEE_BigIntRelativePrime+0x70>)
    14be:	447b      	add	r3, pc
    14c0:	681a      	ldr	r2, [r3, #0]
    14c2:	f107 0308 	add.w	r3, r7, #8
    14c6:	4611      	mov	r1, r2
    14c8:	4618      	mov	r0, r3
    14ca:	f006 fdab 	bl	8024 <mpa_alloc_static_temp_var>
/home/ocean/projects/invisiblecode/invisible-code/optee_qemu/optee_os/lib/libutee/tee_api_arith.c:497
    14ce:	68b8      	ldr	r0, [r7, #8]
    14d0:	4b12      	ldr	r3, [pc, #72]	; (151c <TEE_BigIntRelativePrime+0x74>)
    14d2:	447b      	add	r3, pc
    14d4:	681b      	ldr	r3, [r3, #0]
    14d6:	693a      	ldr	r2, [r7, #16]
    14d8:	6979      	ldr	r1, [r7, #20]
    14da:	f006 fb67 	bl	7bac <mpa_gcd>
/home/ocean/projects/invisiblecode/invisible-code/optee_qemu/optee_os/lib/libutee/tee_api_arith.c:498
    14de:	68bb      	ldr	r3, [r7, #8]
    14e0:	f04f 0101 	mov.w	r1, #1
    14e4:	4618      	mov	r0, r3
    14e6:	f008 f9e5 	bl	98b4 <mpa_cmp_short>
    14ea:	4603      	mov	r3, r0
    14ec:	60fb      	str	r3, [r7, #12]
/home/ocean/projects/invisiblecode/invisible-code/optee_qemu/optee_os/lib/libutee/tee_api_arith.c:500
    14ee:	4b0c      	ldr	r3, [pc, #48]	; (1520 <TEE_BigIntRelativePrime+0x78>)
    14f0:	447b      	add	r3, pc
    14f2:	681a      	ldr	r2, [r3, #0]
    14f4:	f107 0308 	add.w	r3, r7, #8
    14f8:	4611      	mov	r1, r2
    14fa:	4618      	mov	r0, r3
    14fc:	f006 fda6 	bl	804c <mpa_free_static_temp_var>
/home/ocean/projects/invisiblecode/invisible-code/optee_qemu/optee_os/lib/libutee/tee_api_arith.c:502
    1500:	68fb      	ldr	r3, [r7, #12]
    1502:	2b00      	cmp	r3, #0
    1504:	bf0c      	ite	eq
    1506:	2301      	moveq	r3, #1
    1508:	2300      	movne	r3, #0
    150a:	b2db      	uxtb	r3, r3
/home/ocean/projects/invisiblecode/invisible-code/optee_qemu/optee_os/lib/libutee/tee_api_arith.c:503
    150c:	4618      	mov	r0, r3
    150e:	f107 0718 	add.w	r7, r7, #24
    1512:	46bd      	mov	sp, r7
    1514:	bd80      	pop	{r7, pc}
    1516:	bf00      	nop
    1518:	0000bbb6 	.word	0x0000bbb6
    151c:	0000bba2 	.word	0x0000bba2
    1520:	0000bb84 	.word	0x0000bb84

00001524 <TEE_BigIntComputeExtendedGcd>:
TEE_BigIntComputeExtendedGcd():
/home/ocean/projects/invisiblecode/invisible-code/optee_qemu/optee_os/lib/libutee/tee_api_arith.c:511
    1524:	e96d 7e02 	strd	r7, lr, [sp, #-8]!
    1528:	b08c      	sub	sp, #48	; 0x30
    152a:	af02      	add	r7, sp, #8
    152c:	60f8      	str	r0, [r7, #12]
    152e:	60b9      	str	r1, [r7, #8]
    1530:	607a      	str	r2, [r7, #4]
    1532:	603b      	str	r3, [r7, #0]
/home/ocean/projects/invisiblecode/invisible-code/optee_qemu/optee_os/lib/libutee/tee_api_arith.c:512
    1534:	68fb      	ldr	r3, [r7, #12]
    1536:	627b      	str	r3, [r7, #36]	; 0x24
/home/ocean/projects/invisiblecode/invisible-code/optee_qemu/optee_os/lib/libutee/tee_api_arith.c:513
    1538:	68bb      	ldr	r3, [r7, #8]
    153a:	623b      	str	r3, [r7, #32]
/home/ocean/projects/invisiblecode/invisible-code/optee_qemu/optee_os/lib/libutee/tee_api_arith.c:514
    153c:	687b      	ldr	r3, [r7, #4]
    153e:	61fb      	str	r3, [r7, #28]
/home/ocean/projects/invisiblecode/invisible-code/optee_qemu/optee_os/lib/libutee/tee_api_arith.c:515
    1540:	683b      	ldr	r3, [r7, #0]
    1542:	61bb      	str	r3, [r7, #24]
/home/ocean/projects/invisiblecode/invisible-code/optee_qemu/optee_os/lib/libutee/tee_api_arith.c:516
    1544:	6b3b      	ldr	r3, [r7, #48]	; 0x30
    1546:	617b      	str	r3, [r7, #20]
/home/ocean/projects/invisiblecode/invisible-code/optee_qemu/optee_os/lib/libutee/tee_api_arith.c:518
    1548:	4b08      	ldr	r3, [pc, #32]	; (156c <TEE_BigIntComputeExtendedGcd+0x48>)
    154a:	447b      	add	r3, pc
    154c:	681b      	ldr	r3, [r3, #0]
    154e:	9301      	str	r3, [sp, #4]
    1550:	697b      	ldr	r3, [r7, #20]
    1552:	9300      	str	r3, [sp, #0]
    1554:	69bb      	ldr	r3, [r7, #24]
    1556:	69fa      	ldr	r2, [r7, #28]
    1558:	6a39      	ldr	r1, [r7, #32]
    155a:	6a78      	ldr	r0, [r7, #36]	; 0x24
    155c:	f006 fb9c 	bl	7c98 <mpa_extended_gcd>
/home/ocean/projects/invisiblecode/invisible-code/optee_qemu/optee_os/lib/libutee/tee_api_arith.c:519
    1560:	bf00      	nop
    1562:	f107 0728 	add.w	r7, r7, #40	; 0x28
    1566:	46bd      	mov	sp, r7
    1568:	bd80      	pop	{r7, pc}
    156a:	bf00      	nop
    156c:	0000bb2a 	.word	0x0000bb2a

00001570 <TEE_BigIntIsProbablePrime>:
TEE_BigIntIsProbablePrime():
/home/ocean/projects/invisiblecode/invisible-code/optee_qemu/optee_os/lib/libutee/tee_api_arith.c:526
    1570:	e96d 7e02 	strd	r7, lr, [sp, #-8]!
    1574:	b084      	sub	sp, #16
    1576:	af00      	add	r7, sp, #0
    1578:	6078      	str	r0, [r7, #4]
    157a:	6039      	str	r1, [r7, #0]
/home/ocean/projects/invisiblecode/invisible-code/optee_qemu/optee_os/lib/libutee/tee_api_arith.c:527
    157c:	687b      	ldr	r3, [r7, #4]
    157e:	60fb      	str	r3, [r7, #12]
/home/ocean/projects/invisiblecode/invisible-code/optee_qemu/optee_os/lib/libutee/tee_api_arith.c:529
    1580:	683b      	ldr	r3, [r7, #0]
    1582:	2b4f      	cmp	r3, #79	; 0x4f
    1584:	d802      	bhi.n	158c <TEE_BigIntIsProbablePrime+0x1c>
/home/ocean/projects/invisiblecode/invisible-code/optee_qemu/optee_os/lib/libutee/tee_api_arith.c:530
    1586:	f04f 0350 	mov.w	r3, #80	; 0x50
    158a:	603b      	str	r3, [r7, #0]
/home/ocean/projects/invisiblecode/invisible-code/optee_qemu/optee_os/lib/libutee/tee_api_arith.c:532
    158c:	683b      	ldr	r3, [r7, #0]
    158e:	f5b3 7f80 	cmp.w	r3, #256	; 0x100
    1592:	d902      	bls.n	159a <TEE_BigIntIsProbablePrime+0x2a>
/home/ocean/projects/invisiblecode/invisible-code/optee_qemu/optee_os/lib/libutee/tee_api_arith.c:533
    1594:	f44f 7380 	mov.w	r3, #256	; 0x100
    1598:	603b      	str	r3, [r7, #0]
/home/ocean/projects/invisiblecode/invisible-code/optee_qemu/optee_os/lib/libutee/tee_api_arith.c:535
    159a:	683b      	ldr	r3, [r7, #0]
    159c:	4a06      	ldr	r2, [pc, #24]	; (15b8 <TEE_BigIntIsProbablePrime+0x48>)
    159e:	447a      	add	r2, pc
    15a0:	6812      	ldr	r2, [r2, #0]
    15a2:	4619      	mov	r1, r3
    15a4:	68f8      	ldr	r0, [r7, #12]
    15a6:	f005 f855 	bl	6654 <mpa_is_prob_prime>
    15aa:	4603      	mov	r3, r0
/home/ocean/projects/invisiblecode/invisible-code/optee_qemu/optee_os/lib/libutee/tee_api_arith.c:536
    15ac:	4618      	mov	r0, r3
    15ae:	f107 0710 	add.w	r7, r7, #16
    15b2:	46bd      	mov	sp, r7
    15b4:	bd80      	pop	{r7, pc}
    15b6:	bf00      	nop
    15b8:	0000bad6 	.word	0x0000bad6

000015bc <TEE_BigIntConvertToFMM>:
TEE_BigIntConvertToFMM():
/home/ocean/projects/invisiblecode/invisible-code/optee_qemu/optee_os/lib/libutee/tee_api_arith.c:549
    15bc:	e96d 7e02 	strd	r7, lr, [sp, #-8]!
    15c0:	b08a      	sub	sp, #40	; 0x28
    15c2:	af02      	add	r7, sp, #8
    15c4:	60f8      	str	r0, [r7, #12]
    15c6:	60b9      	str	r1, [r7, #8]
    15c8:	607a      	str	r2, [r7, #4]
    15ca:	603b      	str	r3, [r7, #0]
/home/ocean/projects/invisiblecode/invisible-code/optee_qemu/optee_os/lib/libutee/tee_api_arith.c:550
    15cc:	68fb      	ldr	r3, [r7, #12]
    15ce:	61fb      	str	r3, [r7, #28]
/home/ocean/projects/invisiblecode/invisible-code/optee_qemu/optee_os/lib/libutee/tee_api_arith.c:551
    15d0:	68bb      	ldr	r3, [r7, #8]
    15d2:	61bb      	str	r3, [r7, #24]
/home/ocean/projects/invisiblecode/invisible-code/optee_qemu/optee_os/lib/libutee/tee_api_arith.c:552
    15d4:	687b      	ldr	r3, [r7, #4]
    15d6:	617b      	str	r3, [r7, #20]
/home/ocean/projects/invisiblecode/invisible-code/optee_qemu/optee_os/lib/libutee/tee_api_arith.c:553
    15d8:	683b      	ldr	r3, [r7, #0]
    15da:	613b      	str	r3, [r7, #16]
/home/ocean/projects/invisiblecode/invisible-code/optee_qemu/optee_os/lib/libutee/tee_api_arith.c:556
    15dc:	693b      	ldr	r3, [r7, #16]
    15de:	6859      	ldr	r1, [r3, #4]
    15e0:	693b      	ldr	r3, [r7, #16]
    15e2:	689b      	ldr	r3, [r3, #8]
    15e4:	4a07      	ldr	r2, [pc, #28]	; (1604 <TEE_BigIntConvertToFMM+0x48>)
    15e6:	447a      	add	r2, pc
    15e8:	6812      	ldr	r2, [r2, #0]
    15ea:	9201      	str	r2, [sp, #4]
    15ec:	9300      	str	r3, [sp, #0]
    15ee:	697b      	ldr	r3, [r7, #20]
    15f0:	460a      	mov	r2, r1
    15f2:	69b9      	ldr	r1, [r7, #24]
    15f4:	69f8      	ldr	r0, [r7, #28]
    15f6:	f005 f807 	bl	6608 <mpa_montgomery_mul>
/home/ocean/projects/invisiblecode/invisible-code/optee_qemu/optee_os/lib/libutee/tee_api_arith.c:558
    15fa:	bf00      	nop
    15fc:	f107 0720 	add.w	r7, r7, #32
    1600:	46bd      	mov	sp, r7
    1602:	bd80      	pop	{r7, pc}
    1604:	0000ba8e 	.word	0x0000ba8e

00001608 <TEE_BigIntConvertFromFMM>:
TEE_BigIntConvertFromFMM():
/home/ocean/projects/invisiblecode/invisible-code/optee_qemu/optee_os/lib/libutee/tee_api_arith.c:567
    1608:	f84d 4d0c 	str.w	r4, [sp, #-12]!
    160c:	e9cd 7e01 	strd	r7, lr, [sp, #4]
    1610:	b08d      	sub	sp, #52	; 0x34
    1612:	af02      	add	r7, sp, #8
    1614:	60f8      	str	r0, [r7, #12]
    1616:	60b9      	str	r1, [r7, #8]
    1618:	607a      	str	r2, [r7, #4]
    161a:	603b      	str	r3, [r7, #0]
/home/ocean/projects/invisiblecode/invisible-code/optee_qemu/optee_os/lib/libutee/tee_api_arith.c:568
    161c:	68fb      	ldr	r3, [r7, #12]
    161e:	627b      	str	r3, [r7, #36]	; 0x24
/home/ocean/projects/invisiblecode/invisible-code/optee_qemu/optee_os/lib/libutee/tee_api_arith.c:569
    1620:	68bb      	ldr	r3, [r7, #8]
    1622:	623b      	str	r3, [r7, #32]
/home/ocean/projects/invisiblecode/invisible-code/optee_qemu/optee_os/lib/libutee/tee_api_arith.c:570
    1624:	687b      	ldr	r3, [r7, #4]
    1626:	61fb      	str	r3, [r7, #28]
/home/ocean/projects/invisiblecode/invisible-code/optee_qemu/optee_os/lib/libutee/tee_api_arith.c:571
    1628:	683b      	ldr	r3, [r7, #0]
    162a:	61bb      	str	r3, [r7, #24]
/home/ocean/projects/invisiblecode/invisible-code/optee_qemu/optee_os/lib/libutee/tee_api_arith.c:579
    162c:	4b17      	ldr	r3, [pc, #92]	; (168c <TEE_BigIntConvertFromFMM+0x84>)
    162e:	447b      	add	r3, pc
    1630:	681a      	ldr	r2, [r3, #0]
    1632:	f107 0314 	add.w	r3, r7, #20
    1636:	4611      	mov	r1, r2
    1638:	4618      	mov	r0, r3
    163a:	f006 fcf3 	bl	8024 <mpa_alloc_static_temp_var>
/home/ocean/projects/invisiblecode/invisible-code/optee_qemu/optee_os/lib/libutee/tee_api_arith.c:582
    163e:	697c      	ldr	r4, [r7, #20]
    1640:	f004 fd86 	bl	6150 <mpa_constant_one>
    1644:	4601      	mov	r1, r0
    1646:	69bb      	ldr	r3, [r7, #24]
    1648:	689b      	ldr	r3, [r3, #8]
    164a:	4a11      	ldr	r2, [pc, #68]	; (1690 <TEE_BigIntConvertFromFMM+0x88>)
    164c:	447a      	add	r2, pc
    164e:	6812      	ldr	r2, [r2, #0]
    1650:	9201      	str	r2, [sp, #4]
    1652:	9300      	str	r3, [sp, #0]
    1654:	69fb      	ldr	r3, [r7, #28]
    1656:	6a3a      	ldr	r2, [r7, #32]
    1658:	4620      	mov	r0, r4
    165a:	f004 ffd5 	bl	6608 <mpa_montgomery_mul>
/home/ocean/projects/invisiblecode/invisible-code/optee_qemu/optee_os/lib/libutee/tee_api_arith.c:585
    165e:	697b      	ldr	r3, [r7, #20]
    1660:	4619      	mov	r1, r3
    1662:	6a78      	ldr	r0, [r7, #36]	; 0x24
    1664:	f004 fc90 	bl	5f88 <mpa_copy>
/home/ocean/projects/invisiblecode/invisible-code/optee_qemu/optee_os/lib/libutee/tee_api_arith.c:586
    1668:	4b0a      	ldr	r3, [pc, #40]	; (1694 <TEE_BigIntConvertFromFMM+0x8c>)
    166a:	447b      	add	r3, pc
    166c:	681a      	ldr	r2, [r3, #0]
    166e:	f107 0314 	add.w	r3, r7, #20
    1672:	4611      	mov	r1, r2
    1674:	4618      	mov	r0, r3
    1676:	f006 fce9 	bl	804c <mpa_free_static_temp_var>
/home/ocean/projects/invisiblecode/invisible-code/optee_qemu/optee_os/lib/libutee/tee_api_arith.c:587
    167a:	bf00      	nop
    167c:	f107 072c 	add.w	r7, r7, #44	; 0x2c
    1680:	46bd      	mov	sp, r7
    1682:	e9dd 4700 	ldrd	r4, r7, [sp]
    1686:	b002      	add	sp, #8
    1688:	f85d fb04 	ldr.w	pc, [sp], #4
    168c:	0000ba46 	.word	0x0000ba46
    1690:	0000ba28 	.word	0x0000ba28
    1694:	0000ba0a 	.word	0x0000ba0a

00001698 <TEE_BigIntComputeFMM>:
TEE_BigIntComputeFMM():
/home/ocean/projects/invisiblecode/invisible-code/optee_qemu/optee_os/lib/libutee/tee_api_arith.c:597
    1698:	e96d 7e02 	strd	r7, lr, [sp, #-8]!
    169c:	b08c      	sub	sp, #48	; 0x30
    169e:	af02      	add	r7, sp, #8
    16a0:	60f8      	str	r0, [r7, #12]
    16a2:	60b9      	str	r1, [r7, #8]
    16a4:	607a      	str	r2, [r7, #4]
    16a6:	603b      	str	r3, [r7, #0]
/home/ocean/projects/invisiblecode/invisible-code/optee_qemu/optee_os/lib/libutee/tee_api_arith.c:598
    16a8:	68fb      	ldr	r3, [r7, #12]
    16aa:	627b      	str	r3, [r7, #36]	; 0x24
/home/ocean/projects/invisiblecode/invisible-code/optee_qemu/optee_os/lib/libutee/tee_api_arith.c:599
    16ac:	68bb      	ldr	r3, [r7, #8]
    16ae:	623b      	str	r3, [r7, #32]
/home/ocean/projects/invisiblecode/invisible-code/optee_qemu/optee_os/lib/libutee/tee_api_arith.c:600
    16b0:	687b      	ldr	r3, [r7, #4]
    16b2:	61fb      	str	r3, [r7, #28]
/home/ocean/projects/invisiblecode/invisible-code/optee_qemu/optee_os/lib/libutee/tee_api_arith.c:601
    16b4:	683b      	ldr	r3, [r7, #0]
    16b6:	61bb      	str	r3, [r7, #24]
/home/ocean/projects/invisiblecode/invisible-code/optee_qemu/optee_os/lib/libutee/tee_api_arith.c:602
    16b8:	6b3b      	ldr	r3, [r7, #48]	; 0x30
    16ba:	617b      	str	r3, [r7, #20]
/home/ocean/projects/invisiblecode/invisible-code/optee_qemu/optee_os/lib/libutee/tee_api_arith.c:604
    16bc:	697b      	ldr	r3, [r7, #20]
    16be:	689b      	ldr	r3, [r3, #8]
    16c0:	4a07      	ldr	r2, [pc, #28]	; (16e0 <TEE_BigIntComputeFMM+0x48>)
    16c2:	447a      	add	r2, pc
    16c4:	6812      	ldr	r2, [r2, #0]
    16c6:	9201      	str	r2, [sp, #4]
    16c8:	9300      	str	r3, [sp, #0]
    16ca:	69bb      	ldr	r3, [r7, #24]
    16cc:	69fa      	ldr	r2, [r7, #28]
    16ce:	6a39      	ldr	r1, [r7, #32]
    16d0:	6a78      	ldr	r0, [r7, #36]	; 0x24
    16d2:	f004 ff99 	bl	6608 <mpa_montgomery_mul>
/home/ocean/projects/invisiblecode/invisible-code/optee_qemu/optee_os/lib/libutee/tee_api_arith.c:606
    16d6:	bf00      	nop
    16d8:	f107 0728 	add.w	r7, r7, #40	; 0x28
    16dc:	46bd      	mov	sp, r7
    16de:	bd80      	pop	{r7, pc}
    16e0:	0000b9b2 	.word	0x0000b9b2

000016e4 <__utee_from_param>:
__utee_from_param():
/home/ocean/projects/invisiblecode/invisible-code/optee_qemu/optee_os/lib/libutee/tee_api.c:42
    16e4:	e96d 4702 	strd	r4, r7, [sp, #-8]!
    16e8:	b086      	sub	sp, #24
    16ea:	af00      	add	r7, sp, #0
    16ec:	60f8      	str	r0, [r7, #12]
    16ee:	60b9      	str	r1, [r7, #8]
    16f0:	607a      	str	r2, [r7, #4]
/home/ocean/projects/invisiblecode/invisible-code/optee_qemu/optee_os/lib/libutee/tee_api.c:45
    16f2:	68bb      	ldr	r3, [r7, #8]
    16f4:	f04f 0400 	mov.w	r4, #0
    16f8:	68fa      	ldr	r2, [r7, #12]
    16fa:	e9c2 3400 	strd	r3, r4, [r2]
/home/ocean/projects/invisiblecode/invisible-code/optee_qemu/optee_os/lib/libutee/tee_api.c:46
    16fe:	f04f 0300 	mov.w	r3, #0
    1702:	617b      	str	r3, [r7, #20]
    1704:	e095      	b.n	1832 <__utee_from_param+0x14e>
/home/ocean/projects/invisiblecode/invisible-code/optee_qemu/optee_os/lib/libutee/tee_api.c:47
    1706:	697b      	ldr	r3, [r7, #20]
    1708:	ea4f 0383 	mov.w	r3, r3, lsl #2
    170c:	68ba      	ldr	r2, [r7, #8]
    170e:	fa22 f303 	lsr.w	r3, r2, r3
    1712:	f003 030f 	and.w	r3, r3, #15
    1716:	f103 33ff 	add.w	r3, r3, #4294967295	; 0xffffffff
    171a:	2b06      	cmp	r3, #6
    171c:	d864      	bhi.n	17e8 <__utee_from_param+0x104>
    171e:	a202      	add	r2, pc, #8	; (adr r2, 1728 <__utee_from_param+0x44>)
    1720:	f852 3023 	ldr.w	r3, [r2, r3, lsl #2]
    1724:	441a      	add	r2, r3
    1726:	4710      	bx	r2
    1728:	0000001d 	.word	0x0000001d
    172c:	0000001d 	.word	0x0000001d
    1730:	0000001d 	.word	0x0000001d
    1734:	000000c1 	.word	0x000000c1
    1738:	0000006f 	.word	0x0000006f
    173c:	0000006f 	.word	0x0000006f
    1740:	0000006f 	.word	0x0000006f
/home/ocean/projects/invisiblecode/invisible-code/optee_qemu/optee_os/lib/libutee/tee_api.c:51
    1744:	697b      	ldr	r3, [r7, #20]
    1746:	ea4f 0243 	mov.w	r2, r3, lsl #1
    174a:	697b      	ldr	r3, [r7, #20]
    174c:	ea4f 03c3 	mov.w	r3, r3, lsl #3
    1750:	6879      	ldr	r1, [r7, #4]
    1752:	440b      	add	r3, r1
    1754:	681b      	ldr	r3, [r3, #0]
    1756:	f04f 0400 	mov.w	r4, #0
    175a:	68f9      	ldr	r1, [r7, #12]
    175c:	f102 0201 	add.w	r2, r2, #1
    1760:	ea4f 02c2 	mov.w	r2, r2, lsl #3
    1764:	440a      	add	r2, r1
    1766:	e9c2 3400 	strd	r3, r4, [r2]
/home/ocean/projects/invisiblecode/invisible-code/optee_qemu/optee_os/lib/libutee/tee_api.c:52
    176a:	697b      	ldr	r3, [r7, #20]
    176c:	ea4f 0343 	mov.w	r3, r3, lsl #1
    1770:	f103 0201 	add.w	r2, r3, #1
    1774:	697b      	ldr	r3, [r7, #20]
    1776:	ea4f 03c3 	mov.w	r3, r3, lsl #3
    177a:	6879      	ldr	r1, [r7, #4]
    177c:	440b      	add	r3, r1
    177e:	685b      	ldr	r3, [r3, #4]
    1780:	f04f 0400 	mov.w	r4, #0
    1784:	68f9      	ldr	r1, [r7, #12]
    1786:	f102 0201 	add.w	r2, r2, #1
    178a:	ea4f 02c2 	mov.w	r2, r2, lsl #3
    178e:	440a      	add	r2, r1
    1790:	e9c2 3400 	strd	r3, r4, [r2]
/home/ocean/projects/invisiblecode/invisible-code/optee_qemu/optee_os/lib/libutee/tee_api.c:53
    1794:	e049      	b.n	182a <__utee_from_param+0x146>
/home/ocean/projects/invisiblecode/invisible-code/optee_qemu/optee_os/lib/libutee/tee_api.c:57
    1796:	697b      	ldr	r3, [r7, #20]
    1798:	ea4f 0243 	mov.w	r2, r3, lsl #1
    179c:	697b      	ldr	r3, [r7, #20]
    179e:	ea4f 03c3 	mov.w	r3, r3, lsl #3
    17a2:	6879      	ldr	r1, [r7, #4]
    17a4:	440b      	add	r3, r1
    17a6:	681b      	ldr	r3, [r3, #0]
    17a8:	f04f 0400 	mov.w	r4, #0
    17ac:	68f9      	ldr	r1, [r7, #12]
    17ae:	f102 0201 	add.w	r2, r2, #1
    17b2:	ea4f 02c2 	mov.w	r2, r2, lsl #3
    17b6:	440a      	add	r2, r1
    17b8:	e9c2 3400 	strd	r3, r4, [r2]
/home/ocean/projects/invisiblecode/invisible-code/optee_qemu/optee_os/lib/libutee/tee_api.c:58
    17bc:	697b      	ldr	r3, [r7, #20]
    17be:	ea4f 0343 	mov.w	r3, r3, lsl #1
    17c2:	f103 0201 	add.w	r2, r3, #1
    17c6:	697b      	ldr	r3, [r7, #20]
    17c8:	ea4f 03c3 	mov.w	r3, r3, lsl #3
    17cc:	6879      	ldr	r1, [r7, #4]
    17ce:	440b      	add	r3, r1
    17d0:	685b      	ldr	r3, [r3, #4]
    17d2:	f04f 0400 	mov.w	r4, #0
    17d6:	68f9      	ldr	r1, [r7, #12]
    17d8:	f102 0201 	add.w	r2, r2, #1
    17dc:	ea4f 02c2 	mov.w	r2, r2, lsl #3
    17e0:	440a      	add	r2, r1
    17e2:	e9c2 3400 	strd	r3, r4, [r2]
/home/ocean/projects/invisiblecode/invisible-code/optee_qemu/optee_os/lib/libutee/tee_api.c:59
    17e6:	e020      	b.n	182a <__utee_from_param+0x146>
/home/ocean/projects/invisiblecode/invisible-code/optee_qemu/optee_os/lib/libutee/tee_api.c:61
    17e8:	697b      	ldr	r3, [r7, #20]
    17ea:	ea4f 0343 	mov.w	r3, r3, lsl #1
    17ee:	68fa      	ldr	r2, [r7, #12]
    17f0:	f103 0301 	add.w	r3, r3, #1
    17f4:	ea4f 03c3 	mov.w	r3, r3, lsl #3
    17f8:	441a      	add	r2, r3
    17fa:	f04f 0300 	mov.w	r3, #0
    17fe:	f04f 0400 	mov.w	r4, #0
    1802:	e9c2 3400 	strd	r3, r4, [r2]
/home/ocean/projects/invisiblecode/invisible-code/optee_qemu/optee_os/lib/libutee/tee_api.c:62
    1806:	697b      	ldr	r3, [r7, #20]
    1808:	ea4f 0343 	mov.w	r3, r3, lsl #1
    180c:	f103 0301 	add.w	r3, r3, #1
    1810:	68fa      	ldr	r2, [r7, #12]
    1812:	f103 0301 	add.w	r3, r3, #1
    1816:	ea4f 03c3 	mov.w	r3, r3, lsl #3
    181a:	441a      	add	r2, r3
    181c:	f04f 0300 	mov.w	r3, #0
    1820:	f04f 0400 	mov.w	r4, #0
    1824:	e9c2 3400 	strd	r3, r4, [r2]
/home/ocean/projects/invisiblecode/invisible-code/optee_qemu/optee_os/lib/libutee/tee_api.c:63
    1828:	bf00      	nop
/home/ocean/projects/invisiblecode/invisible-code/optee_qemu/optee_os/lib/libutee/tee_api.c:46 (discriminator 2)
    182a:	697b      	ldr	r3, [r7, #20]
    182c:	f103 0301 	add.w	r3, r3, #1
    1830:	617b      	str	r3, [r7, #20]
/home/ocean/projects/invisiblecode/invisible-code/optee_qemu/optee_os/lib/libutee/tee_api.c:46 (discriminator 1)
    1832:	697b      	ldr	r3, [r7, #20]
    1834:	2b03      	cmp	r3, #3
    1836:	f67f af66 	bls.w	1706 <__utee_from_param+0x22>
/home/ocean/projects/invisiblecode/invisible-code/optee_qemu/optee_os/lib/libutee/tee_api.c:66
    183a:	bf00      	nop
    183c:	f107 0718 	add.w	r7, r7, #24
    1840:	46bd      	mov	sp, r7
    1842:	e9dd 4700 	ldrd	r4, r7, [sp]
    1846:	b002      	add	sp, #8
    1848:	4770      	bx	lr
    184a:	bf00      	nop

0000184c <__utee_to_param>:
__utee_to_param():
/home/ocean/projects/invisiblecode/invisible-code/optee_qemu/optee_os/lib/libutee/tee_api.c:70
    184c:	e96d 4702 	strd	r4, r7, [sp, #-8]!
    1850:	b088      	sub	sp, #32
    1852:	af00      	add	r7, sp, #0
    1854:	60f8      	str	r0, [r7, #12]
    1856:	60b9      	str	r1, [r7, #8]
    1858:	607a      	str	r2, [r7, #4]
/home/ocean/projects/invisiblecode/invisible-code/optee_qemu/optee_os/lib/libutee/tee_api.c:72
    185a:	687b      	ldr	r3, [r7, #4]
    185c:	e9d3 3400 	ldrd	r3, r4, [r3]
    1860:	61bb      	str	r3, [r7, #24]
/home/ocean/projects/invisiblecode/invisible-code/optee_qemu/optee_os/lib/libutee/tee_api.c:74
    1862:	f04f 0300 	mov.w	r3, #0
    1866:	61fb      	str	r3, [r7, #28]
    1868:	e05b      	b.n	1922 <__utee_to_param+0xd6>
/home/ocean/projects/invisiblecode/invisible-code/optee_qemu/optee_os/lib/libutee/tee_api.c:75
    186a:	69fb      	ldr	r3, [r7, #28]
    186c:	ea4f 0343 	mov.w	r3, r3, lsl #1
    1870:	687a      	ldr	r2, [r7, #4]
    1872:	f103 0301 	add.w	r3, r3, #1
    1876:	ea4f 03c3 	mov.w	r3, r3, lsl #3
    187a:	4413      	add	r3, r2
    187c:	e9d3 3400 	ldrd	r3, r4, [r3]
    1880:	617b      	str	r3, [r7, #20]
/home/ocean/projects/invisiblecode/invisible-code/optee_qemu/optee_os/lib/libutee/tee_api.c:76
    1882:	69fb      	ldr	r3, [r7, #28]
    1884:	ea4f 0343 	mov.w	r3, r3, lsl #1
    1888:	f103 0301 	add.w	r3, r3, #1
    188c:	687a      	ldr	r2, [r7, #4]
    188e:	f103 0301 	add.w	r3, r3, #1
    1892:	ea4f 03c3 	mov.w	r3, r3, lsl #3
    1896:	4413      	add	r3, r2
    1898:	e9d3 3400 	ldrd	r3, r4, [r3]
    189c:	613b      	str	r3, [r7, #16]
/home/ocean/projects/invisiblecode/invisible-code/optee_qemu/optee_os/lib/libutee/tee_api.c:78
    189e:	69fb      	ldr	r3, [r7, #28]
    18a0:	ea4f 0383 	mov.w	r3, r3, lsl #2
    18a4:	69ba      	ldr	r2, [r7, #24]
    18a6:	fa22 f303 	lsr.w	r3, r2, r3
    18aa:	f003 030f 	and.w	r3, r3, #15
    18ae:	f103 33ff 	add.w	r3, r3, #4294967295	; 0xffffffff
    18b2:	2b06      	cmp	r3, #6
    18b4:	d830      	bhi.n	1918 <__utee_to_param+0xcc>
    18b6:	a202      	add	r2, pc, #8	; (adr r2, 18c0 <__utee_to_param+0x74>)
    18b8:	f852 3023 	ldr.w	r3, [r2, r3, lsl #2]
    18bc:	441a      	add	r2, r3
    18be:	4710      	bx	r2
    18c0:	0000001d 	.word	0x0000001d
    18c4:	0000001d 	.word	0x0000001d
    18c8:	0000001d 	.word	0x0000001d
    18cc:	00000059 	.word	0x00000059
    18d0:	0000003b 	.word	0x0000003b
    18d4:	0000003b 	.word	0x0000003b
    18d8:	0000003b 	.word	0x0000003b
/home/ocean/projects/invisiblecode/invisible-code/optee_qemu/optee_os/lib/libutee/tee_api.c:82
    18dc:	69fb      	ldr	r3, [r7, #28]
    18de:	ea4f 03c3 	mov.w	r3, r3, lsl #3
    18e2:	68fa      	ldr	r2, [r7, #12]
    18e4:	4413      	add	r3, r2
    18e6:	697a      	ldr	r2, [r7, #20]
    18e8:	601a      	str	r2, [r3, #0]
/home/ocean/projects/invisiblecode/invisible-code/optee_qemu/optee_os/lib/libutee/tee_api.c:83
    18ea:	69fb      	ldr	r3, [r7, #28]
    18ec:	ea4f 03c3 	mov.w	r3, r3, lsl #3
    18f0:	68fa      	ldr	r2, [r7, #12]
    18f2:	4413      	add	r3, r2
    18f4:	693a      	ldr	r2, [r7, #16]
    18f6:	605a      	str	r2, [r3, #4]
/home/ocean/projects/invisiblecode/invisible-code/optee_qemu/optee_os/lib/libutee/tee_api.c:84
    18f8:	e00f      	b.n	191a <__utee_to_param+0xce>
/home/ocean/projects/invisiblecode/invisible-code/optee_qemu/optee_os/lib/libutee/tee_api.c:88
    18fa:	69fb      	ldr	r3, [r7, #28]
    18fc:	ea4f 03c3 	mov.w	r3, r3, lsl #3
    1900:	68fa      	ldr	r2, [r7, #12]
    1902:	4413      	add	r3, r2
    1904:	697a      	ldr	r2, [r7, #20]
    1906:	601a      	str	r2, [r3, #0]
/home/ocean/projects/invisiblecode/invisible-code/optee_qemu/optee_os/lib/libutee/tee_api.c:89
    1908:	69fb      	ldr	r3, [r7, #28]
    190a:	ea4f 03c3 	mov.w	r3, r3, lsl #3
    190e:	68fa      	ldr	r2, [r7, #12]
    1910:	4413      	add	r3, r2
    1912:	693a      	ldr	r2, [r7, #16]
    1914:	605a      	str	r2, [r3, #4]
/home/ocean/projects/invisiblecode/invisible-code/optee_qemu/optee_os/lib/libutee/tee_api.c:90
    1916:	e000      	b.n	191a <__utee_to_param+0xce>
/home/ocean/projects/invisiblecode/invisible-code/optee_qemu/optee_os/lib/libutee/tee_api.c:92
    1918:	bf00      	nop
/home/ocean/projects/invisiblecode/invisible-code/optee_qemu/optee_os/lib/libutee/tee_api.c:74 (discriminator 2)
    191a:	69fb      	ldr	r3, [r7, #28]
    191c:	f103 0301 	add.w	r3, r3, #1
    1920:	61fb      	str	r3, [r7, #28]
/home/ocean/projects/invisiblecode/invisible-code/optee_qemu/optee_os/lib/libutee/tee_api.c:74 (discriminator 1)
    1922:	69fb      	ldr	r3, [r7, #28]
    1924:	2b03      	cmp	r3, #3
    1926:	d9a0      	bls.n	186a <__utee_to_param+0x1e>
/home/ocean/projects/invisiblecode/invisible-code/optee_qemu/optee_os/lib/libutee/tee_api.c:96
    1928:	68bb      	ldr	r3, [r7, #8]
    192a:	2b00      	cmp	r3, #0
    192c:	d002      	beq.n	1934 <__utee_to_param+0xe8>
/home/ocean/projects/invisiblecode/invisible-code/optee_qemu/optee_os/lib/libutee/tee_api.c:97
    192e:	68bb      	ldr	r3, [r7, #8]
    1930:	69ba      	ldr	r2, [r7, #24]
    1932:	601a      	str	r2, [r3, #0]
/home/ocean/projects/invisiblecode/invisible-code/optee_qemu/optee_os/lib/libutee/tee_api.c:98
    1934:	bf00      	nop
    1936:	f107 0720 	add.w	r7, r7, #32
    193a:	46bd      	mov	sp, r7
    193c:	e9dd 4700 	ldrd	r4, r7, [sp]
    1940:	b002      	add	sp, #8
    1942:	4770      	bx	lr

00001944 <TEE_OpenTASession>:
TEE_OpenTASession():
/home/ocean/projects/invisiblecode/invisible-code/optee_qemu/optee_os/lib/libutee/tee_api.c:106
    1944:	e96d 7e02 	strd	r7, lr, [sp, #-8]!
    1948:	b09c      	sub	sp, #112	; 0x70
    194a:	af02      	add	r7, sp, #8
    194c:	60f8      	str	r0, [r7, #12]
    194e:	60b9      	str	r1, [r7, #8]
    1950:	607a      	str	r2, [r7, #4]
    1952:	603b      	str	r3, [r7, #0]
/home/ocean/projects/invisiblecode/invisible-code/optee_qemu/optee_os/lib/libutee/tee_api.c:111
    1954:	f107 0318 	add.w	r3, r7, #24
    1958:	683a      	ldr	r2, [r7, #0]
    195a:	6879      	ldr	r1, [r7, #4]
    195c:	4618      	mov	r0, r3
    195e:	f7ff fec1 	bl	16e4 <__utee_from_param>
/home/ocean/projects/invisiblecode/invisible-code/optee_qemu/optee_os/lib/libutee/tee_api.c:112
    1962:	f107 0114 	add.w	r1, r7, #20
    1966:	f107 0218 	add.w	r2, r7, #24
    196a:	6f7b      	ldr	r3, [r7, #116]	; 0x74
    196c:	9300      	str	r3, [sp, #0]
    196e:	460b      	mov	r3, r1
    1970:	68b9      	ldr	r1, [r7, #8]
    1972:	68f8      	ldr	r0, [r7, #12]
    1974:	f7fe eeba 	blx	6ec <utee_open_ta_session>
    1978:	6678      	str	r0, [r7, #100]	; 0x64
/home/ocean/projects/invisiblecode/invisible-code/optee_qemu/optee_os/lib/libutee/tee_api.c:114
    197a:	f107 0318 	add.w	r3, r7, #24
    197e:	461a      	mov	r2, r3
    1980:	f04f 0100 	mov.w	r1, #0
    1984:	6838      	ldr	r0, [r7, #0]
    1986:	f7ff ff61 	bl	184c <__utee_to_param>
/home/ocean/projects/invisiblecode/invisible-code/optee_qemu/optee_os/lib/libutee/tee_api.c:120
    198a:	6e7b      	ldr	r3, [r7, #100]	; 0x64
    198c:	2b00      	cmp	r3, #0
    198e:	d002      	beq.n	1996 <TEE_OpenTASession+0x52>
/home/ocean/projects/invisiblecode/invisible-code/optee_qemu/optee_os/lib/libutee/tee_api.c:121
    1990:	f04f 0300 	mov.w	r3, #0
    1994:	617b      	str	r3, [r7, #20]
/home/ocean/projects/invisiblecode/invisible-code/optee_qemu/optee_os/lib/libutee/tee_api.c:123
    1996:	697b      	ldr	r3, [r7, #20]
    1998:	461a      	mov	r2, r3
    199a:	6f3b      	ldr	r3, [r7, #112]	; 0x70
    199c:	601a      	str	r2, [r3, #0]
/home/ocean/projects/invisiblecode/invisible-code/optee_qemu/optee_os/lib/libutee/tee_api.c:124
    199e:	6e7b      	ldr	r3, [r7, #100]	; 0x64
/home/ocean/projects/invisiblecode/invisible-code/optee_qemu/optee_os/lib/libutee/tee_api.c:125
    19a0:	4618      	mov	r0, r3
    19a2:	f107 0768 	add.w	r7, r7, #104	; 0x68
    19a6:	46bd      	mov	sp, r7
    19a8:	bd80      	pop	{r7, pc}
    19aa:	bf00      	nop

000019ac <TEE_CloseTASession>:
TEE_CloseTASession():
/home/ocean/projects/invisiblecode/invisible-code/optee_qemu/optee_os/lib/libutee/tee_api.c:128
    19ac:	e96d 7e02 	strd	r7, lr, [sp, #-8]!
    19b0:	b086      	sub	sp, #24
    19b2:	af02      	add	r7, sp, #8
    19b4:	6078      	str	r0, [r7, #4]
/home/ocean/projects/invisiblecode/invisible-code/optee_qemu/optee_os/lib/libutee/tee_api.c:129
    19b6:	687b      	ldr	r3, [r7, #4]
    19b8:	2b00      	cmp	r3, #0
    19ba:	d019      	beq.n	19f0 <TEE_CloseTASession+0x44>
/home/ocean/projects/invisiblecode/invisible-code/optee_qemu/optee_os/lib/libutee/tee_api.c:130
    19bc:	687b      	ldr	r3, [r7, #4]
    19be:	4618      	mov	r0, r3
    19c0:	f7fe eea0 	blx	704 <utee_close_ta_session>
    19c4:	60f8      	str	r0, [r7, #12]
/home/ocean/projects/invisiblecode/invisible-code/optee_qemu/optee_os/lib/libutee/tee_api.c:132
    19c6:	68fb      	ldr	r3, [r7, #12]
    19c8:	2b00      	cmp	r3, #0
    19ca:	d011      	beq.n	19f0 <TEE_CloseTASession+0x44>
/home/ocean/projects/invisiblecode/invisible-code/optee_qemu/optee_os/lib/libutee/tee_api.c:133
    19cc:	68fb      	ldr	r3, [r7, #12]
    19ce:	9301      	str	r3, [sp, #4]
    19d0:	4b0a      	ldr	r3, [pc, #40]	; (19fc <TEE_CloseTASession+0x50>)
    19d2:	447b      	add	r3, pc
    19d4:	9300      	str	r3, [sp, #0]
    19d6:	f04f 0301 	mov.w	r3, #1
    19da:	f04f 0201 	mov.w	r2, #1
    19de:	f04f 0185 	mov.w	r1, #133	; 0x85
    19e2:	4807      	ldr	r0, [pc, #28]	; (1a00 <TEE_CloseTASession+0x54>)
    19e4:	4478      	add	r0, pc
    19e6:	f003 ff19 	bl	581c <trace_printf>
    19ea:	68f8      	ldr	r0, [r7, #12]
    19ec:	f000 fad0 	bl	1f90 <__TEE_Panic>
/home/ocean/projects/invisiblecode/invisible-code/optee_qemu/optee_os/lib/libutee/tee_api.c:135
    19f0:	bf00      	nop
    19f2:	f107 0710 	add.w	r7, r7, #16
    19f6:	46bd      	mov	sp, r7
    19f8:	bd80      	pop	{r7, pc}
    19fa:	bf00      	nop
    19fc:	0000913a 	.word	0x0000913a
    1a00:	00009134 	.word	0x00009134

00001a04 <TEE_InvokeTACommand>:
TEE_InvokeTACommand():
/home/ocean/projects/invisiblecode/invisible-code/optee_qemu/optee_os/lib/libutee/tee_api.c:142
    1a04:	e96d 7e02 	strd	r7, lr, [sp, #-8]!
    1a08:	b09a      	sub	sp, #104	; 0x68
    1a0a:	af02      	add	r7, sp, #8
    1a0c:	60f8      	str	r0, [r7, #12]
    1a0e:	60b9      	str	r1, [r7, #8]
    1a10:	607a      	str	r2, [r7, #4]
    1a12:	603b      	str	r3, [r7, #0]
/home/ocean/projects/invisiblecode/invisible-code/optee_qemu/optee_os/lib/libutee/tee_api.c:147
    1a14:	f107 0310 	add.w	r3, r7, #16
    1a18:	6eba      	ldr	r2, [r7, #104]	; 0x68
    1a1a:	6839      	ldr	r1, [r7, #0]
    1a1c:	4618      	mov	r0, r3
    1a1e:	f7ff fe61 	bl	16e4 <__utee_from_param>
/home/ocean/projects/invisiblecode/invisible-code/optee_qemu/optee_os/lib/libutee/tee_api.c:148
    1a22:	68f8      	ldr	r0, [r7, #12]
    1a24:	f107 0210 	add.w	r2, r7, #16
    1a28:	f107 0358 	add.w	r3, r7, #88	; 0x58
    1a2c:	9300      	str	r3, [sp, #0]
    1a2e:	4613      	mov	r3, r2
    1a30:	687a      	ldr	r2, [r7, #4]
    1a32:	68b9      	ldr	r1, [r7, #8]
    1a34:	f7fe ee70 	blx	718 <utee_invoke_ta_command>
    1a38:	65f8      	str	r0, [r7, #92]	; 0x5c
/home/ocean/projects/invisiblecode/invisible-code/optee_qemu/optee_os/lib/libutee/tee_api.c:151
    1a3a:	f107 0310 	add.w	r3, r7, #16
    1a3e:	461a      	mov	r2, r3
    1a40:	f04f 0100 	mov.w	r1, #0
    1a44:	6eb8      	ldr	r0, [r7, #104]	; 0x68
    1a46:	f7ff ff01 	bl	184c <__utee_to_param>
/home/ocean/projects/invisiblecode/invisible-code/optee_qemu/optee_os/lib/libutee/tee_api.c:153
    1a4a:	6efb      	ldr	r3, [r7, #108]	; 0x6c
    1a4c:	2b00      	cmp	r3, #0
    1a4e:	d002      	beq.n	1a56 <TEE_InvokeTACommand+0x52>
/home/ocean/projects/invisiblecode/invisible-code/optee_qemu/optee_os/lib/libutee/tee_api.c:154
    1a50:	6dba      	ldr	r2, [r7, #88]	; 0x58
    1a52:	6efb      	ldr	r3, [r7, #108]	; 0x6c
    1a54:	601a      	str	r2, [r3, #0]
/home/ocean/projects/invisiblecode/invisible-code/optee_qemu/optee_os/lib/libutee/tee_api.c:156
    1a56:	6dbb      	ldr	r3, [r7, #88]	; 0x58
    1a58:	2b04      	cmp	r3, #4
    1a5a:	d101      	bne.n	1a60 <TEE_InvokeTACommand+0x5c>
/home/ocean/projects/invisiblecode/invisible-code/optee_qemu/optee_os/lib/libutee/tee_api.c:157
    1a5c:	6dfb      	ldr	r3, [r7, #92]	; 0x5c
    1a5e:	e023      	b.n	1aa8 <TEE_InvokeTACommand+0xa4>
/home/ocean/projects/invisiblecode/invisible-code/optee_qemu/optee_os/lib/libutee/tee_api.c:159
    1a60:	6dfb      	ldr	r3, [r7, #92]	; 0x5c
    1a62:	2b00      	cmp	r3, #0
    1a64:	d01f      	beq.n	1aa6 <TEE_InvokeTACommand+0xa2>
/home/ocean/projects/invisiblecode/invisible-code/optee_qemu/optee_os/lib/libutee/tee_api.c:159 (discriminator 1)
    1a66:	6dfa      	ldr	r2, [r7, #92]	; 0x5c
    1a68:	f04f 030c 	mov.w	r3, #12
    1a6c:	f6cf 73ff 	movt	r3, #65535	; 0xffff
    1a70:	429a      	cmp	r2, r3
    1a72:	d018      	beq.n	1aa6 <TEE_InvokeTACommand+0xa2>
/home/ocean/projects/invisiblecode/invisible-code/optee_qemu/optee_os/lib/libutee/tee_api.c:160
    1a74:	6dfa      	ldr	r2, [r7, #92]	; 0x5c
    1a76:	f243 0324 	movw	r3, #12324	; 0x3024
    1a7a:	f6cf 73ff 	movt	r3, #65535	; 0xffff
    1a7e:	429a      	cmp	r2, r3
    1a80:	d011      	beq.n	1aa6 <TEE_InvokeTACommand+0xa2>
/home/ocean/projects/invisiblecode/invisible-code/optee_qemu/optee_os/lib/libutee/tee_api.c:162
    1a82:	6dfb      	ldr	r3, [r7, #92]	; 0x5c
    1a84:	9301      	str	r3, [sp, #4]
    1a86:	4b0b      	ldr	r3, [pc, #44]	; (1ab4 <TEE_InvokeTACommand+0xb0>)
    1a88:	447b      	add	r3, pc
    1a8a:	9300      	str	r3, [sp, #0]
    1a8c:	f04f 0301 	mov.w	r3, #1
    1a90:	f04f 0201 	mov.w	r2, #1
    1a94:	f04f 01a2 	mov.w	r1, #162	; 0xa2
    1a98:	4807      	ldr	r0, [pc, #28]	; (1ab8 <TEE_InvokeTACommand+0xb4>)
    1a9a:	4478      	add	r0, pc
    1a9c:	f003 febe 	bl	581c <trace_printf>
    1aa0:	6df8      	ldr	r0, [r7, #92]	; 0x5c
    1aa2:	f000 fa75 	bl	1f90 <__TEE_Panic>
/home/ocean/projects/invisiblecode/invisible-code/optee_qemu/optee_os/lib/libutee/tee_api.c:164
    1aa6:	6dfb      	ldr	r3, [r7, #92]	; 0x5c
/home/ocean/projects/invisiblecode/invisible-code/optee_qemu/optee_os/lib/libutee/tee_api.c:165 (discriminator 1)
    1aa8:	4618      	mov	r0, r3
    1aaa:	f107 0760 	add.w	r7, r7, #96	; 0x60
    1aae:	46bd      	mov	sp, r7
    1ab0:	bd80      	pop	{r7, pc}
    1ab2:	bf00      	nop
    1ab4:	00009084 	.word	0x00009084
    1ab8:	00009092 	.word	0x00009092

00001abc <TEE_GetCancellationFlag>:
TEE_GetCancellationFlag():
/home/ocean/projects/invisiblecode/invisible-code/optee_qemu/optee_os/lib/libutee/tee_api.c:170
    1abc:	e96d 7e02 	strd	r7, lr, [sp, #-8]!
    1ac0:	b082      	sub	sp, #8
    1ac2:	af00      	add	r7, sp, #0
/home/ocean/projects/invisiblecode/invisible-code/optee_qemu/optee_os/lib/libutee/tee_api.c:172
    1ac4:	463b      	mov	r3, r7
    1ac6:	4618      	mov	r0, r3
    1ac8:	f7fe ee32 	blx	730 <utee_get_cancellation_flag>
    1acc:	6078      	str	r0, [r7, #4]
/home/ocean/projects/invisiblecode/invisible-code/optee_qemu/optee_os/lib/libutee/tee_api.c:174
    1ace:	687b      	ldr	r3, [r7, #4]
    1ad0:	2b00      	cmp	r3, #0
    1ad2:	d002      	beq.n	1ada <TEE_GetCancellationFlag+0x1e>
/home/ocean/projects/invisiblecode/invisible-code/optee_qemu/optee_os/lib/libutee/tee_api.c:175
    1ad4:	f04f 0300 	mov.w	r3, #0
    1ad8:	603b      	str	r3, [r7, #0]
/home/ocean/projects/invisiblecode/invisible-code/optee_qemu/optee_os/lib/libutee/tee_api.c:176
    1ada:	683b      	ldr	r3, [r7, #0]
    1adc:	2b00      	cmp	r3, #0
    1ade:	bf14      	ite	ne
    1ae0:	2301      	movne	r3, #1
    1ae2:	2300      	moveq	r3, #0
    1ae4:	b2db      	uxtb	r3, r3
/home/ocean/projects/invisiblecode/invisible-code/optee_qemu/optee_os/lib/libutee/tee_api.c:177
    1ae6:	4618      	mov	r0, r3
    1ae8:	f107 0708 	add.w	r7, r7, #8
    1aec:	46bd      	mov	sp, r7
    1aee:	bd80      	pop	{r7, pc}

00001af0 <TEE_UnmaskCancellation>:
TEE_UnmaskCancellation():
/home/ocean/projects/invisiblecode/invisible-code/optee_qemu/optee_os/lib/libutee/tee_api.c:180
    1af0:	e96d 7e02 	strd	r7, lr, [sp, #-8]!
    1af4:	b084      	sub	sp, #16
    1af6:	af02      	add	r7, sp, #8
/home/ocean/projects/invisiblecode/invisible-code/optee_qemu/optee_os/lib/libutee/tee_api.c:182
    1af8:	463b      	mov	r3, r7
    1afa:	4618      	mov	r0, r3
    1afc:	f7fe ee2c 	blx	758 <utee_unmask_cancellation>
    1b00:	6078      	str	r0, [r7, #4]
/home/ocean/projects/invisiblecode/invisible-code/optee_qemu/optee_os/lib/libutee/tee_api.c:184
    1b02:	687b      	ldr	r3, [r7, #4]
    1b04:	2b00      	cmp	r3, #0
    1b06:	d011      	beq.n	1b2c <TEE_UnmaskCancellation+0x3c>
/home/ocean/projects/invisiblecode/invisible-code/optee_qemu/optee_os/lib/libutee/tee_api.c:185
    1b08:	687b      	ldr	r3, [r7, #4]
    1b0a:	9301      	str	r3, [sp, #4]
    1b0c:	4b0d      	ldr	r3, [pc, #52]	; (1b44 <TEE_UnmaskCancellation+0x54>)
    1b0e:	447b      	add	r3, pc
    1b10:	9300      	str	r3, [sp, #0]
    1b12:	f04f 0301 	mov.w	r3, #1
    1b16:	f04f 0201 	mov.w	r2, #1
    1b1a:	f04f 01b9 	mov.w	r1, #185	; 0xb9
    1b1e:	480a      	ldr	r0, [pc, #40]	; (1b48 <TEE_UnmaskCancellation+0x58>)
    1b20:	4478      	add	r0, pc
    1b22:	f003 fe7b 	bl	581c <trace_printf>
    1b26:	6878      	ldr	r0, [r7, #4]
    1b28:	f000 fa32 	bl	1f90 <__TEE_Panic>
/home/ocean/projects/invisiblecode/invisible-code/optee_qemu/optee_os/lib/libutee/tee_api.c:186
    1b2c:	683b      	ldr	r3, [r7, #0]
    1b2e:	2b00      	cmp	r3, #0
    1b30:	bf14      	ite	ne
    1b32:	2301      	movne	r3, #1
    1b34:	2300      	moveq	r3, #0
    1b36:	b2db      	uxtb	r3, r3
/home/ocean/projects/invisiblecode/invisible-code/optee_qemu/optee_os/lib/libutee/tee_api.c:187
    1b38:	4618      	mov	r0, r3
    1b3a:	f107 0708 	add.w	r7, r7, #8
    1b3e:	46bd      	mov	sp, r7
    1b40:	bd80      	pop	{r7, pc}
    1b42:	bf00      	nop
    1b44:	00008ffe 	.word	0x00008ffe
    1b48:	00009020 	.word	0x00009020

00001b4c <TEE_MaskCancellation>:
TEE_MaskCancellation():
/home/ocean/projects/invisiblecode/invisible-code/optee_qemu/optee_os/lib/libutee/tee_api.c:190
    1b4c:	e96d 7e02 	strd	r7, lr, [sp, #-8]!
    1b50:	b084      	sub	sp, #16
    1b52:	af02      	add	r7, sp, #8
/home/ocean/projects/invisiblecode/invisible-code/optee_qemu/optee_os/lib/libutee/tee_api.c:192
    1b54:	463b      	mov	r3, r7
    1b56:	4618      	mov	r0, r3
    1b58:	f7fe ee08 	blx	76c <utee_mask_cancellation>
    1b5c:	6078      	str	r0, [r7, #4]
/home/ocean/projects/invisiblecode/invisible-code/optee_qemu/optee_os/lib/libutee/tee_api.c:194
    1b5e:	687b      	ldr	r3, [r7, #4]
    1b60:	2b00      	cmp	r3, #0
    1b62:	d011      	beq.n	1b88 <TEE_MaskCancellation+0x3c>
/home/ocean/projects/invisiblecode/invisible-code/optee_qemu/optee_os/lib/libutee/tee_api.c:195
    1b64:	687b      	ldr	r3, [r7, #4]
    1b66:	9301      	str	r3, [sp, #4]
    1b68:	4b0d      	ldr	r3, [pc, #52]	; (1ba0 <TEE_MaskCancellation+0x54>)
    1b6a:	447b      	add	r3, pc
    1b6c:	9300      	str	r3, [sp, #0]
    1b6e:	f04f 0301 	mov.w	r3, #1
    1b72:	f04f 0201 	mov.w	r2, #1
    1b76:	f04f 01c3 	mov.w	r1, #195	; 0xc3
    1b7a:	480a      	ldr	r0, [pc, #40]	; (1ba4 <TEE_MaskCancellation+0x58>)
    1b7c:	4478      	add	r0, pc
    1b7e:	f003 fe4d 	bl	581c <trace_printf>
    1b82:	6878      	ldr	r0, [r7, #4]
    1b84:	f000 fa04 	bl	1f90 <__TEE_Panic>
/home/ocean/projects/invisiblecode/invisible-code/optee_qemu/optee_os/lib/libutee/tee_api.c:196
    1b88:	683b      	ldr	r3, [r7, #0]
    1b8a:	2b00      	cmp	r3, #0
    1b8c:	bf14      	ite	ne
    1b8e:	2301      	movne	r3, #1
    1b90:	2300      	moveq	r3, #0
    1b92:	b2db      	uxtb	r3, r3
/home/ocean/projects/invisiblecode/invisible-code/optee_qemu/optee_os/lib/libutee/tee_api.c:197
    1b94:	4618      	mov	r0, r3
    1b96:	f107 0708 	add.w	r7, r7, #8
    1b9a:	46bd      	mov	sp, r7
    1b9c:	bd80      	pop	{r7, pc}
    1b9e:	bf00      	nop
    1ba0:	00008fa2 	.word	0x00008fa2
    1ba4:	00008fdc 	.word	0x00008fdc

00001ba8 <TEE_CheckMemoryAccessRights>:
TEE_CheckMemoryAccessRights():
/home/ocean/projects/invisiblecode/invisible-code/optee_qemu/optee_os/lib/libutee/tee_api.c:203
    1ba8:	e96d 7e02 	strd	r7, lr, [sp, #-8]!
    1bac:	b086      	sub	sp, #24
    1bae:	af00      	add	r7, sp, #0
    1bb0:	60f8      	str	r0, [r7, #12]
    1bb2:	60b9      	str	r1, [r7, #8]
    1bb4:	607a      	str	r2, [r7, #4]
/home/ocean/projects/invisiblecode/invisible-code/optee_qemu/optee_os/lib/libutee/tee_api.c:206
    1bb6:	687b      	ldr	r3, [r7, #4]
    1bb8:	2b00      	cmp	r3, #0
    1bba:	d102      	bne.n	1bc2 <TEE_CheckMemoryAccessRights+0x1a>
/home/ocean/projects/invisiblecode/invisible-code/optee_qemu/optee_os/lib/libutee/tee_api.c:207
    1bbc:	f04f 0300 	mov.w	r3, #0
    1bc0:	e00e      	b.n	1be0 <TEE_CheckMemoryAccessRights+0x38>
/home/ocean/projects/invisiblecode/invisible-code/optee_qemu/optee_os/lib/libutee/tee_api.c:210
    1bc2:	687a      	ldr	r2, [r7, #4]
    1bc4:	68b9      	ldr	r1, [r7, #8]
    1bc6:	68f8      	ldr	r0, [r7, #12]
    1bc8:	f7fe edbc 	blx	744 <utee_check_access_rights>
    1bcc:	6178      	str	r0, [r7, #20]
/home/ocean/projects/invisiblecode/invisible-code/optee_qemu/optee_os/lib/libutee/tee_api.c:211
    1bce:	697b      	ldr	r3, [r7, #20]
    1bd0:	2b00      	cmp	r3, #0
    1bd2:	d103      	bne.n	1bdc <TEE_CheckMemoryAccessRights+0x34>
/home/ocean/projects/invisiblecode/invisible-code/optee_qemu/optee_os/lib/libutee/tee_api.c:219
    1bd4:	f04f 0300 	mov.w	r3, #0
    1bd8:	617b      	str	r3, [r7, #20]
    1bda:	e000      	b.n	1bde <TEE_CheckMemoryAccessRights+0x36>
/home/ocean/projects/invisiblecode/invisible-code/optee_qemu/optee_os/lib/libutee/tee_api.c:212
    1bdc:	bf00      	nop
/home/ocean/projects/invisiblecode/invisible-code/optee_qemu/optee_os/lib/libutee/tee_api.c:221
    1bde:	697b      	ldr	r3, [r7, #20]
/home/ocean/projects/invisiblecode/invisible-code/optee_qemu/optee_os/lib/libutee/tee_api.c:222
    1be0:	4618      	mov	r0, r3
    1be2:	f107 0718 	add.w	r7, r7, #24
    1be6:	46bd      	mov	sp, r7
    1be8:	bd80      	pop	{r7, pc}
    1bea:	bf00      	nop

00001bec <TEE_SetInstanceData>:
TEE_SetInstanceData():
/home/ocean/projects/invisiblecode/invisible-code/optee_qemu/optee_os/lib/libutee/tee_api.c:225
    1bec:	f84d 7d04 	str.w	r7, [sp, #-4]!
    1bf0:	b083      	sub	sp, #12
    1bf2:	af00      	add	r7, sp, #0
    1bf4:	6078      	str	r0, [r7, #4]
/home/ocean/projects/invisiblecode/invisible-code/optee_qemu/optee_os/lib/libutee/tee_api.c:226
    1bf6:	4b06      	ldr	r3, [pc, #24]	; (1c10 <TEE_SetInstanceData+0x24>)
    1bf8:	447b      	add	r3, pc
    1bfa:	461a      	mov	r2, r3
    1bfc:	687b      	ldr	r3, [r7, #4]
    1bfe:	6013      	str	r3, [r2, #0]
/home/ocean/projects/invisiblecode/invisible-code/optee_qemu/optee_os/lib/libutee/tee_api.c:227
    1c00:	bf00      	nop
    1c02:	f107 070c 	add.w	r7, r7, #12
    1c06:	46bd      	mov	sp, r7
    1c08:	f85d 7b04 	ldr.w	r7, [sp], #4
    1c0c:	4770      	bx	lr
    1c0e:	bf00      	nop
    1c10:	00014fc8 	.word	0x00014fc8

00001c14 <TEE_GetInstanceData>:
TEE_GetInstanceData():
/home/ocean/projects/invisiblecode/invisible-code/optee_qemu/optee_os/lib/libutee/tee_api.c:230
    1c14:	f84d 7d04 	str.w	r7, [sp, #-4]!
    1c18:	af00      	add	r7, sp, #0
/home/ocean/projects/invisiblecode/invisible-code/optee_qemu/optee_os/lib/libutee/tee_api.c:231
    1c1a:	4b04      	ldr	r3, [pc, #16]	; (1c2c <TEE_GetInstanceData+0x18>)
    1c1c:	447b      	add	r3, pc
    1c1e:	681b      	ldr	r3, [r3, #0]
/home/ocean/projects/invisiblecode/invisible-code/optee_qemu/optee_os/lib/libutee/tee_api.c:232
    1c20:	4618      	mov	r0, r3
    1c22:	46bd      	mov	sp, r7
    1c24:	f85d 7b04 	ldr.w	r7, [sp], #4
    1c28:	4770      	bx	lr
    1c2a:	bf00      	nop
    1c2c:	00014fa4 	.word	0x00014fa4

00001c30 <TEE_MemMove>:
TEE_MemMove():
/home/ocean/projects/invisiblecode/invisible-code/optee_qemu/optee_os/lib/libutee/tee_api.c:235
    1c30:	e96d 7e02 	strd	r7, lr, [sp, #-8]!
    1c34:	b084      	sub	sp, #16
    1c36:	af00      	add	r7, sp, #0
    1c38:	60f8      	str	r0, [r7, #12]
    1c3a:	60b9      	str	r1, [r7, #8]
    1c3c:	607a      	str	r2, [r7, #4]
/home/ocean/projects/invisiblecode/invisible-code/optee_qemu/optee_os/lib/libutee/tee_api.c:236
    1c3e:	687a      	ldr	r2, [r7, #4]
    1c40:	68b9      	ldr	r1, [r7, #8]
    1c42:	68f8      	ldr	r0, [r7, #12]
    1c44:	f002 fc04 	bl	4450 <memmove>
    1c48:	4603      	mov	r3, r0
/home/ocean/projects/invisiblecode/invisible-code/optee_qemu/optee_os/lib/libutee/tee_api.c:237
    1c4a:	4618      	mov	r0, r3
    1c4c:	f107 0710 	add.w	r7, r7, #16
    1c50:	46bd      	mov	sp, r7
    1c52:	bd80      	pop	{r7, pc}

00001c54 <TEE_MemCompare>:
TEE_MemCompare():
/home/ocean/projects/invisiblecode/invisible-code/optee_qemu/optee_os/lib/libutee/tee_api.c:240
    1c54:	e96d 7e02 	strd	r7, lr, [sp, #-8]!
    1c58:	b084      	sub	sp, #16
    1c5a:	af00      	add	r7, sp, #0
    1c5c:	60f8      	str	r0, [r7, #12]
    1c5e:	60b9      	str	r1, [r7, #8]
    1c60:	607a      	str	r2, [r7, #4]
/home/ocean/projects/invisiblecode/invisible-code/optee_qemu/optee_os/lib/libutee/tee_api.c:241
    1c62:	687a      	ldr	r2, [r7, #4]
    1c64:	68b9      	ldr	r1, [r7, #8]
    1c66:	68f8      	ldr	r0, [r7, #12]
    1c68:	f002 fb1c 	bl	42a4 <memcmp>
    1c6c:	4603      	mov	r3, r0
/home/ocean/projects/invisiblecode/invisible-code/optee_qemu/optee_os/lib/libutee/tee_api.c:242
    1c6e:	4618      	mov	r0, r3
    1c70:	f107 0710 	add.w	r7, r7, #16
    1c74:	46bd      	mov	sp, r7
    1c76:	bd80      	pop	{r7, pc}

00001c78 <TEE_MemFill>:
TEE_MemFill():
/home/ocean/projects/invisiblecode/invisible-code/optee_qemu/optee_os/lib/libutee/tee_api.c:245
    1c78:	e96d 7e02 	strd	r7, lr, [sp, #-8]!
    1c7c:	b084      	sub	sp, #16
    1c7e:	af00      	add	r7, sp, #0
    1c80:	60f8      	str	r0, [r7, #12]
    1c82:	60b9      	str	r1, [r7, #8]
    1c84:	607a      	str	r2, [r7, #4]
/home/ocean/projects/invisiblecode/invisible-code/optee_qemu/optee_os/lib/libutee/tee_api.c:246
    1c86:	68bb      	ldr	r3, [r7, #8]
    1c88:	687a      	ldr	r2, [r7, #4]
    1c8a:	4619      	mov	r1, r3
    1c8c:	68f8      	ldr	r0, [r7, #12]
    1c8e:	f002 fc7f 	bl	4590 <memset>
    1c92:	4603      	mov	r3, r0
/home/ocean/projects/invisiblecode/invisible-code/optee_qemu/optee_os/lib/libutee/tee_api.c:247
    1c94:	4618      	mov	r0, r3
    1c96:	f107 0710 	add.w	r7, r7, #16
    1c9a:	46bd      	mov	sp, r7
    1c9c:	bd80      	pop	{r7, pc}
    1c9e:	bf00      	nop

00001ca0 <TEE_GetSystemTime>:
TEE_GetSystemTime():
/home/ocean/projects/invisiblecode/invisible-code/optee_qemu/optee_os/lib/libutee/tee_api.c:252
    1ca0:	e96d 7e02 	strd	r7, lr, [sp, #-8]!
    1ca4:	b086      	sub	sp, #24
    1ca6:	af02      	add	r7, sp, #8
    1ca8:	6078      	str	r0, [r7, #4]
/home/ocean/projects/invisiblecode/invisible-code/optee_qemu/optee_os/lib/libutee/tee_api.c:253
    1caa:	6879      	ldr	r1, [r7, #4]
    1cac:	f04f 0000 	mov.w	r0, #0
    1cb0:	f7fe ed70 	blx	794 <utee_get_time>
    1cb4:	60f8      	str	r0, [r7, #12]
/home/ocean/projects/invisiblecode/invisible-code/optee_qemu/optee_os/lib/libutee/tee_api.c:255
    1cb6:	68fb      	ldr	r3, [r7, #12]
    1cb8:	2b00      	cmp	r3, #0
    1cba:	d013      	beq.n	1ce4 <TEE_GetSystemTime+0x44>
/home/ocean/projects/invisiblecode/invisible-code/optee_qemu/optee_os/lib/libutee/tee_api.c:256
    1cbc:	f04f 0300 	mov.w	r3, #0
    1cc0:	9301      	str	r3, [sp, #4]
    1cc2:	4b0b      	ldr	r3, [pc, #44]	; (1cf0 <TEE_GetSystemTime+0x50>)
    1cc4:	447b      	add	r3, pc
    1cc6:	9300      	str	r3, [sp, #0]
    1cc8:	f04f 0301 	mov.w	r3, #1
    1ccc:	f04f 0201 	mov.w	r2, #1
    1cd0:	f44f 7180 	mov.w	r1, #256	; 0x100
    1cd4:	4807      	ldr	r0, [pc, #28]	; (1cf4 <TEE_GetSystemTime+0x54>)
    1cd6:	4478      	add	r0, pc
    1cd8:	f003 fda0 	bl	581c <trace_printf>
    1cdc:	f04f 0000 	mov.w	r0, #0
    1ce0:	f000 f956 	bl	1f90 <__TEE_Panic>
/home/ocean/projects/invisiblecode/invisible-code/optee_qemu/optee_os/lib/libutee/tee_api.c:257
    1ce4:	bf00      	nop
    1ce6:	f107 0710 	add.w	r7, r7, #16
    1cea:	46bd      	mov	sp, r7
    1cec:	bd80      	pop	{r7, pc}
    1cee:	bf00      	nop
    1cf0:	00008e48 	.word	0x00008e48
    1cf4:	00008e9a 	.word	0x00008e9a

00001cf8 <TEE_Wait>:
TEE_Wait():
/home/ocean/projects/invisiblecode/invisible-code/optee_qemu/optee_os/lib/libutee/tee_api.c:260
    1cf8:	e96d 7e02 	strd	r7, lr, [sp, #-8]!
    1cfc:	b086      	sub	sp, #24
    1cfe:	af02      	add	r7, sp, #8
    1d00:	6078      	str	r0, [r7, #4]
/home/ocean/projects/invisiblecode/invisible-code/optee_qemu/optee_os/lib/libutee/tee_api.c:261
    1d02:	6878      	ldr	r0, [r7, #4]
    1d04:	f7fe ed3c 	blx	780 <utee_wait>
    1d08:	60f8      	str	r0, [r7, #12]
/home/ocean/projects/invisiblecode/invisible-code/optee_qemu/optee_os/lib/libutee/tee_api.c:263
    1d0a:	68fb      	ldr	r3, [r7, #12]
    1d0c:	2b00      	cmp	r3, #0
    1d0e:	d018      	beq.n	1d42 <TEE_Wait+0x4a>
/home/ocean/projects/invisiblecode/invisible-code/optee_qemu/optee_os/lib/libutee/tee_api.c:263 (discriminator 1)
    1d10:	68fa      	ldr	r2, [r7, #12]
    1d12:	f04f 0302 	mov.w	r3, #2
    1d16:	f6cf 73ff 	movt	r3, #65535	; 0xffff
    1d1a:	429a      	cmp	r2, r3
    1d1c:	d011      	beq.n	1d42 <TEE_Wait+0x4a>
/home/ocean/projects/invisiblecode/invisible-code/optee_qemu/optee_os/lib/libutee/tee_api.c:264
    1d1e:	68fb      	ldr	r3, [r7, #12]
    1d20:	9301      	str	r3, [sp, #4]
    1d22:	4b0b      	ldr	r3, [pc, #44]	; (1d50 <TEE_Wait+0x58>)
    1d24:	447b      	add	r3, pc
    1d26:	9300      	str	r3, [sp, #0]
    1d28:	f04f 0301 	mov.w	r3, #1
    1d2c:	f04f 0201 	mov.w	r2, #1
    1d30:	f44f 7184 	mov.w	r1, #264	; 0x108
    1d34:	4807      	ldr	r0, [pc, #28]	; (1d54 <TEE_Wait+0x5c>)
    1d36:	4478      	add	r0, pc
    1d38:	f003 fd70 	bl	581c <trace_printf>
    1d3c:	68f8      	ldr	r0, [r7, #12]
    1d3e:	f000 f927 	bl	1f90 <__TEE_Panic>
/home/ocean/projects/invisiblecode/invisible-code/optee_qemu/optee_os/lib/libutee/tee_api.c:266
    1d42:	68fb      	ldr	r3, [r7, #12]
/home/ocean/projects/invisiblecode/invisible-code/optee_qemu/optee_os/lib/libutee/tee_api.c:267
    1d44:	4618      	mov	r0, r3
    1d46:	f107 0710 	add.w	r7, r7, #16
    1d4a:	46bd      	mov	sp, r7
    1d4c:	bd80      	pop	{r7, pc}
    1d4e:	bf00      	nop
    1d50:	00008de8 	.word	0x00008de8
    1d54:	00008e4e 	.word	0x00008e4e

00001d58 <TEE_GetTAPersistentTime>:
TEE_GetTAPersistentTime():
/home/ocean/projects/invisiblecode/invisible-code/optee_qemu/optee_os/lib/libutee/tee_api.c:270
    1d58:	e96d 7e02 	strd	r7, lr, [sp, #-8]!
    1d5c:	b086      	sub	sp, #24
    1d5e:	af02      	add	r7, sp, #8
    1d60:	6078      	str	r0, [r7, #4]
/home/ocean/projects/invisiblecode/invisible-code/optee_qemu/optee_os/lib/libutee/tee_api.c:273
    1d62:	6879      	ldr	r1, [r7, #4]
    1d64:	f04f 0001 	mov.w	r0, #1
    1d68:	f7fe ed14 	blx	794 <utee_get_time>
    1d6c:	60f8      	str	r0, [r7, #12]
/home/ocean/projects/invisiblecode/invisible-code/optee_qemu/optee_os/lib/libutee/tee_api.c:275
    1d6e:	68fb      	ldr	r3, [r7, #12]
    1d70:	2b00      	cmp	r3, #0
    1d72:	d00e      	beq.n	1d92 <TEE_GetTAPersistentTime+0x3a>
/home/ocean/projects/invisiblecode/invisible-code/optee_qemu/optee_os/lib/libutee/tee_api.c:275 (discriminator 1)
    1d74:	68fa      	ldr	r2, [r7, #12]
    1d76:	f243 030f 	movw	r3, #12303	; 0x300f
    1d7a:	f6cf 73ff 	movt	r3, #65535	; 0xffff
    1d7e:	429a      	cmp	r2, r3
    1d80:	d007      	beq.n	1d92 <TEE_GetTAPersistentTime+0x3a>
/home/ocean/projects/invisiblecode/invisible-code/optee_qemu/optee_os/lib/libutee/tee_api.c:276
    1d82:	687b      	ldr	r3, [r7, #4]
    1d84:	f04f 0200 	mov.w	r2, #0
    1d88:	601a      	str	r2, [r3, #0]
/home/ocean/projects/invisiblecode/invisible-code/optee_qemu/optee_os/lib/libutee/tee_api.c:277
    1d8a:	687b      	ldr	r3, [r7, #4]
    1d8c:	f04f 0200 	mov.w	r2, #0
    1d90:	605a      	str	r2, [r3, #4]
/home/ocean/projects/invisiblecode/invisible-code/optee_qemu/optee_os/lib/libutee/tee_api.c:280
    1d92:	68fb      	ldr	r3, [r7, #12]
    1d94:	2b00      	cmp	r3, #0
    1d96:	d02a      	beq.n	1dee <TEE_GetTAPersistentTime+0x96>
/home/ocean/projects/invisiblecode/invisible-code/optee_qemu/optee_os/lib/libutee/tee_api.c:280 (discriminator 1)
    1d98:	68fb      	ldr	r3, [r7, #12]
    1d9a:	f513 4f30 	cmn.w	r3, #45056	; 0xb000
    1d9e:	d026      	beq.n	1dee <TEE_GetTAPersistentTime+0x96>
/home/ocean/projects/invisiblecode/invisible-code/optee_qemu/optee_os/lib/libutee/tee_api.c:281
    1da0:	68fa      	ldr	r2, [r7, #12]
    1da2:	f245 0301 	movw	r3, #20481	; 0x5001
    1da6:	f6cf 73ff 	movt	r3, #65535	; 0xffff
    1daa:	429a      	cmp	r2, r3
    1dac:	d01f      	beq.n	1dee <TEE_GetTAPersistentTime+0x96>
/home/ocean/projects/invisiblecode/invisible-code/optee_qemu/optee_os/lib/libutee/tee_api.c:282
    1dae:	68fa      	ldr	r2, [r7, #12]
    1db0:	f243 030f 	movw	r3, #12303	; 0x300f
    1db4:	f6cf 73ff 	movt	r3, #65535	; 0xffff
    1db8:	429a      	cmp	r2, r3
    1dba:	d018      	beq.n	1dee <TEE_GetTAPersistentTime+0x96>
/home/ocean/projects/invisiblecode/invisible-code/optee_qemu/optee_os/lib/libutee/tee_api.c:283
    1dbc:	68fa      	ldr	r2, [r7, #12]
    1dbe:	f04f 030c 	mov.w	r3, #12
    1dc2:	f6cf 73ff 	movt	r3, #65535	; 0xffff
    1dc6:	429a      	cmp	r2, r3
    1dc8:	d011      	beq.n	1dee <TEE_GetTAPersistentTime+0x96>
/home/ocean/projects/invisiblecode/invisible-code/optee_qemu/optee_os/lib/libutee/tee_api.c:285
    1dca:	68fb      	ldr	r3, [r7, #12]
    1dcc:	9301      	str	r3, [sp, #4]
    1dce:	4b0b      	ldr	r3, [pc, #44]	; (1dfc <TEE_GetTAPersistentTime+0xa4>)
    1dd0:	447b      	add	r3, pc
    1dd2:	9300      	str	r3, [sp, #0]
    1dd4:	f04f 0301 	mov.w	r3, #1
    1dd8:	f04f 0201 	mov.w	r2, #1
    1ddc:	f240 111d 	movw	r1, #285	; 0x11d
    1de0:	4807      	ldr	r0, [pc, #28]	; (1e00 <TEE_GetTAPersistentTime+0xa8>)
    1de2:	4478      	add	r0, pc
    1de4:	f003 fd1a 	bl	581c <trace_printf>
    1de8:	68f8      	ldr	r0, [r7, #12]
    1dea:	f000 f8d1 	bl	1f90 <__TEE_Panic>
/home/ocean/projects/invisiblecode/invisible-code/optee_qemu/optee_os/lib/libutee/tee_api.c:287
    1dee:	68fb      	ldr	r3, [r7, #12]
/home/ocean/projects/invisiblecode/invisible-code/optee_qemu/optee_os/lib/libutee/tee_api.c:288
    1df0:	4618      	mov	r0, r3
    1df2:	f107 0710 	add.w	r7, r7, #16
    1df6:	46bd      	mov	sp, r7
    1df8:	bd80      	pop	{r7, pc}
    1dfa:	bf00      	nop
    1dfc:	00008d3c 	.word	0x00008d3c
    1e00:	00008dae 	.word	0x00008dae

00001e04 <TEE_SetTAPersistentTime>:
TEE_SetTAPersistentTime():
/home/ocean/projects/invisiblecode/invisible-code/optee_qemu/optee_os/lib/libutee/tee_api.c:291
    1e04:	e96d 7e02 	strd	r7, lr, [sp, #-8]!
    1e08:	b086      	sub	sp, #24
    1e0a:	af02      	add	r7, sp, #8
    1e0c:	6078      	str	r0, [r7, #4]
/home/ocean/projects/invisiblecode/invisible-code/optee_qemu/optee_os/lib/libutee/tee_api.c:294
    1e0e:	6878      	ldr	r0, [r7, #4]
    1e10:	f7fe ecca 	blx	7a8 <utee_set_ta_time>
    1e14:	60f8      	str	r0, [r7, #12]
/home/ocean/projects/invisiblecode/invisible-code/optee_qemu/optee_os/lib/libutee/tee_api.c:296
    1e16:	68fb      	ldr	r3, [r7, #12]
    1e18:	2b00      	cmp	r3, #0
    1e1a:	d01f      	beq.n	1e5c <TEE_SetTAPersistentTime+0x58>
/home/ocean/projects/invisiblecode/invisible-code/optee_qemu/optee_os/lib/libutee/tee_api.c:296 (discriminator 1)
    1e1c:	68fa      	ldr	r2, [r7, #12]
    1e1e:	f04f 030c 	mov.w	r3, #12
    1e22:	f6cf 73ff 	movt	r3, #65535	; 0xffff
    1e26:	429a      	cmp	r2, r3
    1e28:	d018      	beq.n	1e5c <TEE_SetTAPersistentTime+0x58>
/home/ocean/projects/invisiblecode/invisible-code/optee_qemu/optee_os/lib/libutee/tee_api.c:297
    1e2a:	68fa      	ldr	r2, [r7, #12]
    1e2c:	f243 0341 	movw	r3, #12353	; 0x3041
    1e30:	f6cf 73ff 	movt	r3, #65535	; 0xffff
    1e34:	429a      	cmp	r2, r3
    1e36:	d011      	beq.n	1e5c <TEE_SetTAPersistentTime+0x58>
/home/ocean/projects/invisiblecode/invisible-code/optee_qemu/optee_os/lib/libutee/tee_api.c:299
    1e38:	68fb      	ldr	r3, [r7, #12]
    1e3a:	9301      	str	r3, [sp, #4]
    1e3c:	4b0a      	ldr	r3, [pc, #40]	; (1e68 <TEE_SetTAPersistentTime+0x64>)
    1e3e:	447b      	add	r3, pc
    1e40:	9300      	str	r3, [sp, #0]
    1e42:	f04f 0301 	mov.w	r3, #1
    1e46:	f04f 0201 	mov.w	r2, #1
    1e4a:	f240 112b 	movw	r1, #299	; 0x12b
    1e4e:	4807      	ldr	r0, [pc, #28]	; (1e6c <TEE_SetTAPersistentTime+0x68>)
    1e50:	4478      	add	r0, pc
    1e52:	f003 fce3 	bl	581c <trace_printf>
    1e56:	68f8      	ldr	r0, [r7, #12]
    1e58:	f000 f89a 	bl	1f90 <__TEE_Panic>
/home/ocean/projects/invisiblecode/invisible-code/optee_qemu/optee_os/lib/libutee/tee_api.c:301
    1e5c:	68fb      	ldr	r3, [r7, #12]
/home/ocean/projects/invisiblecode/invisible-code/optee_qemu/optee_os/lib/libutee/tee_api.c:302
    1e5e:	4618      	mov	r0, r3
    1e60:	f107 0710 	add.w	r7, r7, #16
    1e64:	46bd      	mov	sp, r7
    1e66:	bd80      	pop	{r7, pc}
    1e68:	00008cce 	.word	0x00008cce
    1e6c:	00008d58 	.word	0x00008d58

00001e70 <TEE_GetREETime>:
TEE_GetREETime():
/home/ocean/projects/invisiblecode/invisible-code/optee_qemu/optee_os/lib/libutee/tee_api.c:305
    1e70:	e96d 7e02 	strd	r7, lr, [sp, #-8]!
    1e74:	b086      	sub	sp, #24
    1e76:	af02      	add	r7, sp, #8
    1e78:	6078      	str	r0, [r7, #4]
/home/ocean/projects/invisiblecode/invisible-code/optee_qemu/optee_os/lib/libutee/tee_api.c:306
    1e7a:	6879      	ldr	r1, [r7, #4]
    1e7c:	f04f 0002 	mov.w	r0, #2
    1e80:	f7fe ec88 	blx	794 <utee_get_time>
    1e84:	60f8      	str	r0, [r7, #12]
/home/ocean/projects/invisiblecode/invisible-code/optee_qemu/optee_os/lib/libutee/tee_api.c:308
    1e86:	68fb      	ldr	r3, [r7, #12]
    1e88:	2b00      	cmp	r3, #0
    1e8a:	d013      	beq.n	1eb4 <TEE_GetREETime+0x44>
/home/ocean/projects/invisiblecode/invisible-code/optee_qemu/optee_os/lib/libutee/tee_api.c:309
    1e8c:	f04f 0300 	mov.w	r3, #0
    1e90:	9301      	str	r3, [sp, #4]
    1e92:	4b0b      	ldr	r3, [pc, #44]	; (1ec0 <TEE_GetREETime+0x50>)
    1e94:	447b      	add	r3, pc
    1e96:	9300      	str	r3, [sp, #0]
    1e98:	f04f 0301 	mov.w	r3, #1
    1e9c:	f04f 0201 	mov.w	r2, #1
    1ea0:	f240 1135 	movw	r1, #309	; 0x135
    1ea4:	4807      	ldr	r0, [pc, #28]	; (1ec4 <TEE_GetREETime+0x54>)
    1ea6:	4478      	add	r0, pc
    1ea8:	f003 fcb8 	bl	581c <trace_printf>
    1eac:	f04f 0000 	mov.w	r0, #0
    1eb0:	f000 f86e 	bl	1f90 <__TEE_Panic>
/home/ocean/projects/invisiblecode/invisible-code/optee_qemu/optee_os/lib/libutee/tee_api.c:310
    1eb4:	bf00      	nop
    1eb6:	f107 0710 	add.w	r7, r7, #16
    1eba:	46bd      	mov	sp, r7
    1ebc:	bd80      	pop	{r7, pc}
    1ebe:	bf00      	nop
    1ec0:	00008c78 	.word	0x00008c78
    1ec4:	00008d1a 	.word	0x00008d1a

00001ec8 <TEE_Malloc>:
TEE_Malloc():
/home/ocean/projects/invisiblecode/invisible-code/optee_qemu/optee_os/lib/libutee/tee_api.c:313
    1ec8:	e96d 7e02 	strd	r7, lr, [sp, #-8]!
    1ecc:	b082      	sub	sp, #8
    1ece:	af00      	add	r7, sp, #0
    1ed0:	6078      	str	r0, [r7, #4]
    1ed2:	6039      	str	r1, [r7, #0]
/home/ocean/projects/invisiblecode/invisible-code/optee_qemu/optee_os/lib/libutee/tee_api.c:314
    1ed4:	6839      	ldr	r1, [r7, #0]
    1ed6:	6878      	ldr	r0, [r7, #4]
    1ed8:	f000 fa92 	bl	2400 <tee_user_mem_alloc>
    1edc:	4603      	mov	r3, r0
/home/ocean/projects/invisiblecode/invisible-code/optee_qemu/optee_os/lib/libutee/tee_api.c:315
    1ede:	4618      	mov	r0, r3
    1ee0:	f107 0708 	add.w	r7, r7, #8
    1ee4:	46bd      	mov	sp, r7
    1ee6:	bd80      	pop	{r7, pc}

00001ee8 <TEE_Realloc>:
TEE_Realloc():
/home/ocean/projects/invisiblecode/invisible-code/optee_qemu/optee_os/lib/libutee/tee_api.c:318
    1ee8:	e96d 7e02 	strd	r7, lr, [sp, #-8]!
    1eec:	b082      	sub	sp, #8
    1eee:	af00      	add	r7, sp, #0
    1ef0:	6078      	str	r0, [r7, #4]
    1ef2:	6039      	str	r1, [r7, #0]
/home/ocean/projects/invisiblecode/invisible-code/optee_qemu/optee_os/lib/libutee/tee_api.c:323
    1ef4:	6839      	ldr	r1, [r7, #0]
    1ef6:	6878      	ldr	r0, [r7, #4]
    1ef8:	f000 fb26 	bl	2548 <tee_user_mem_realloc>
    1efc:	4603      	mov	r3, r0
/home/ocean/projects/invisiblecode/invisible-code/optee_qemu/optee_os/lib/libutee/tee_api.c:324
    1efe:	4618      	mov	r0, r3
    1f00:	f107 0708 	add.w	r7, r7, #8
    1f04:	46bd      	mov	sp, r7
    1f06:	bd80      	pop	{r7, pc}

00001f08 <TEE_Free>:
TEE_Free():
/home/ocean/projects/invisiblecode/invisible-code/optee_qemu/optee_os/lib/libutee/tee_api.c:327
    1f08:	e96d 7e02 	strd	r7, lr, [sp, #-8]!
    1f0c:	b082      	sub	sp, #8
    1f0e:	af00      	add	r7, sp, #0
    1f10:	6078      	str	r0, [r7, #4]
/home/ocean/projects/invisiblecode/invisible-code/optee_qemu/optee_os/lib/libutee/tee_api.c:328
    1f12:	6878      	ldr	r0, [r7, #4]
    1f14:	f000 fb6e 	bl	25f4 <tee_user_mem_free>
/home/ocean/projects/invisiblecode/invisible-code/optee_qemu/optee_os/lib/libutee/tee_api.c:329
    1f18:	bf00      	nop
    1f1a:	f107 0708 	add.w	r7, r7, #8
    1f1e:	46bd      	mov	sp, r7
    1f20:	bd80      	pop	{r7, pc}
    1f22:	bf00      	nop

00001f24 <TEE_CacheClean>:
TEE_CacheClean():
/home/ocean/projects/invisiblecode/invisible-code/optee_qemu/optee_os/lib/libutee/tee_api.c:333
    1f24:	e96d 7e02 	strd	r7, lr, [sp, #-8]!
    1f28:	b082      	sub	sp, #8
    1f2a:	af00      	add	r7, sp, #0
    1f2c:	6078      	str	r0, [r7, #4]
    1f2e:	6039      	str	r1, [r7, #0]
/home/ocean/projects/invisiblecode/invisible-code/optee_qemu/optee_os/lib/libutee/tee_api.c:334
    1f30:	f04f 0200 	mov.w	r2, #0
    1f34:	6839      	ldr	r1, [r7, #0]
    1f36:	6878      	ldr	r0, [r7, #4]
    1f38:	f7fe ee82 	blx	c40 <utee_cache_operation>
    1f3c:	4603      	mov	r3, r0
/home/ocean/projects/invisiblecode/invisible-code/optee_qemu/optee_os/lib/libutee/tee_api.c:335
    1f3e:	4618      	mov	r0, r3
    1f40:	f107 0708 	add.w	r7, r7, #8
    1f44:	46bd      	mov	sp, r7
    1f46:	bd80      	pop	{r7, pc}

00001f48 <TEE_CacheFlush>:
TEE_CacheFlush():
/home/ocean/projects/invisiblecode/invisible-code/optee_qemu/optee_os/lib/libutee/tee_api.c:337
    1f48:	e96d 7e02 	strd	r7, lr, [sp, #-8]!
    1f4c:	b082      	sub	sp, #8
    1f4e:	af00      	add	r7, sp, #0
    1f50:	6078      	str	r0, [r7, #4]
    1f52:	6039      	str	r1, [r7, #0]
/home/ocean/projects/invisiblecode/invisible-code/optee_qemu/optee_os/lib/libutee/tee_api.c:338
    1f54:	f04f 0201 	mov.w	r2, #1
    1f58:	6839      	ldr	r1, [r7, #0]
    1f5a:	6878      	ldr	r0, [r7, #4]
    1f5c:	f7fe ee70 	blx	c40 <utee_cache_operation>
    1f60:	4603      	mov	r3, r0
/home/ocean/projects/invisiblecode/invisible-code/optee_qemu/optee_os/lib/libutee/tee_api.c:339
    1f62:	4618      	mov	r0, r3
    1f64:	f107 0708 	add.w	r7, r7, #8
    1f68:	46bd      	mov	sp, r7
    1f6a:	bd80      	pop	{r7, pc}

00001f6c <TEE_CacheInvalidate>:
TEE_CacheInvalidate():
/home/ocean/projects/invisiblecode/invisible-code/optee_qemu/optee_os/lib/libutee/tee_api.c:342
    1f6c:	e96d 7e02 	strd	r7, lr, [sp, #-8]!
    1f70:	b082      	sub	sp, #8
    1f72:	af00      	add	r7, sp, #0
    1f74:	6078      	str	r0, [r7, #4]
    1f76:	6039      	str	r1, [r7, #0]
/home/ocean/projects/invisiblecode/invisible-code/optee_qemu/optee_os/lib/libutee/tee_api.c:343
    1f78:	f04f 0202 	mov.w	r2, #2
    1f7c:	6839      	ldr	r1, [r7, #0]
    1f7e:	6878      	ldr	r0, [r7, #4]
    1f80:	f7fe ee5e 	blx	c40 <utee_cache_operation>
    1f84:	4603      	mov	r3, r0
/home/ocean/projects/invisiblecode/invisible-code/optee_qemu/optee_os/lib/libutee/tee_api.c:344
    1f86:	4618      	mov	r0, r3
    1f88:	f107 0708 	add.w	r7, r7, #8
    1f8c:	46bd      	mov	sp, r7
    1f8e:	bd80      	pop	{r7, pc}

00001f90 <__TEE_Panic>:
__TEE_Panic():
/home/ocean/projects/invisiblecode/invisible-code/optee_qemu/optee_os/lib/libutee/tee_api_panic.c:35
    1f90:	e96d 7e02 	strd	r7, lr, [sp, #-8]!
    1f94:	b082      	sub	sp, #8
    1f96:	af00      	add	r7, sp, #0
    1f98:	6078      	str	r0, [r7, #4]
/home/ocean/projects/invisiblecode/invisible-code/optee_qemu/optee_os/lib/libutee/tee_api_panic.c:36
    1f9a:	6878      	ldr	r0, [r7, #4]
    1f9c:	f7fe eb86 	blx	6ac <utee_panic>

00001fa0 <TEE_Panic>:
TEE_Panic():
/home/ocean/projects/invisiblecode/invisible-code/optee_qemu/optee_os/lib/libutee/tee_api_panic.c:40
    1fa0:	e96d 7e02 	strd	r7, lr, [sp, #-8]!
    1fa4:	b082      	sub	sp, #8
    1fa6:	af00      	add	r7, sp, #0
    1fa8:	6078      	str	r0, [r7, #4]
/home/ocean/projects/invisiblecode/invisible-code/optee_qemu/optee_os/lib/libutee/tee_api_panic.c:41
    1faa:	6878      	ldr	r0, [r7, #4]
    1fac:	f7ff fff0 	bl	1f90 <__TEE_Panic>

00001fb0 <utee_get_ta_exec_id>:
utee_get_ta_exec_id():
/home/ocean/projects/invisiblecode/invisible-code/optee_qemu/optee_os/lib/libutee/arch/arm/utee_misc.c:36
    1fb0:	f84d 7d04 	str.w	r7, [sp, #-4]!
    1fb4:	af00      	add	r7, sp, #0
/home/ocean/projects/invisiblecode/invisible-code/optee_qemu/optee_os/lib/libutee/arch/arm/utee_misc.c:38
    1fb6:	f04f 0300 	mov.w	r3, #0
/home/ocean/projects/invisiblecode/invisible-code/optee_qemu/optee_os/lib/libutee/arch/arm/utee_misc.c:39
    1fba:	4618      	mov	r0, r3
    1fbc:	46bd      	mov	sp, r7
    1fbe:	f85d 7b04 	ldr.w	r7, [sp], #4
    1fc2:	4770      	bx	lr

00001fc4 <utee_malloc>:
utee_malloc():
/home/ocean/projects/invisiblecode/invisible-code/optee_qemu/optee_os/lib/libutee/arch/arm/utee_misc.c:43
    1fc4:	e96d 7e02 	strd	r7, lr, [sp, #-8]!
    1fc8:	b082      	sub	sp, #8
    1fca:	af00      	add	r7, sp, #0
    1fcc:	6078      	str	r0, [r7, #4]
/home/ocean/projects/invisiblecode/invisible-code/optee_qemu/optee_os/lib/libutee/arch/arm/utee_misc.c:44
    1fce:	6878      	ldr	r0, [r7, #4]
    1fd0:	f001 ff16 	bl	3e00 <malloc>
    1fd4:	4603      	mov	r3, r0
/home/ocean/projects/invisiblecode/invisible-code/optee_qemu/optee_os/lib/libutee/arch/arm/utee_misc.c:45
    1fd6:	4618      	mov	r0, r3
    1fd8:	f107 0708 	add.w	r7, r7, #8
    1fdc:	46bd      	mov	sp, r7
    1fde:	bd80      	pop	{r7, pc}

00001fe0 <utee_realloc>:
utee_realloc():
/home/ocean/projects/invisiblecode/invisible-code/optee_qemu/optee_os/lib/libutee/arch/arm/utee_misc.c:48
    1fe0:	e96d 7e02 	strd	r7, lr, [sp, #-8]!
    1fe4:	b082      	sub	sp, #8
    1fe6:	af00      	add	r7, sp, #0
    1fe8:	6078      	str	r0, [r7, #4]
    1fea:	6039      	str	r1, [r7, #0]
/home/ocean/projects/invisiblecode/invisible-code/optee_qemu/optee_os/lib/libutee/arch/arm/utee_misc.c:49
    1fec:	6839      	ldr	r1, [r7, #0]
    1fee:	6878      	ldr	r0, [r7, #4]
    1ff0:	f001 ff64 	bl	3ebc <realloc>
    1ff4:	4603      	mov	r3, r0
/home/ocean/projects/invisiblecode/invisible-code/optee_qemu/optee_os/lib/libutee/arch/arm/utee_misc.c:50
    1ff6:	4618      	mov	r0, r3
    1ff8:	f107 0708 	add.w	r7, r7, #8
    1ffc:	46bd      	mov	sp, r7
    1ffe:	bd80      	pop	{r7, pc}

00002000 <utee_calloc>:
utee_calloc():
/home/ocean/projects/invisiblecode/invisible-code/optee_qemu/optee_os/lib/libutee/arch/arm/utee_misc.c:53
    2000:	e96d 7e02 	strd	r7, lr, [sp, #-8]!
    2004:	b082      	sub	sp, #8
    2006:	af00      	add	r7, sp, #0
    2008:	6078      	str	r0, [r7, #4]
    200a:	6039      	str	r1, [r7, #0]
/home/ocean/projects/invisiblecode/invisible-code/optee_qemu/optee_os/lib/libutee/arch/arm/utee_misc.c:54
    200c:	6879      	ldr	r1, [r7, #4]
    200e:	6838      	ldr	r0, [r7, #0]
    2010:	f001 ff24 	bl	3e5c <calloc>
    2014:	4603      	mov	r3, r0
/home/ocean/projects/invisiblecode/invisible-code/optee_qemu/optee_os/lib/libutee/arch/arm/utee_misc.c:55
    2016:	4618      	mov	r0, r3
    2018:	f107 0708 	add.w	r7, r7, #8
    201c:	46bd      	mov	sp, r7
    201e:	bd80      	pop	{r7, pc}

00002020 <utee_free>:
utee_free():
/home/ocean/projects/invisiblecode/invisible-code/optee_qemu/optee_os/lib/libutee/arch/arm/utee_misc.c:58
    2020:	e96d 7e02 	strd	r7, lr, [sp, #-8]!
    2024:	b082      	sub	sp, #8
    2026:	af00      	add	r7, sp, #0
    2028:	6078      	str	r0, [r7, #4]
/home/ocean/projects/invisiblecode/invisible-code/optee_qemu/optee_os/lib/libutee/arch/arm/utee_misc.c:59
    202a:	6878      	ldr	r0, [r7, #4]
    202c:	f001 ff02 	bl	3e34 <free>
/home/ocean/projects/invisiblecode/invisible-code/optee_qemu/optee_os/lib/libutee/arch/arm/utee_misc.c:60
    2030:	bf00      	nop
    2032:	f107 0708 	add.w	r7, r7, #8
    2036:	46bd      	mov	sp, r7
    2038:	bd80      	pop	{r7, pc}
    203a:	bf00      	nop

0000203c <get_rng_array>:
get_rng_array():
/home/ocean/projects/invisiblecode/invisible-code/optee_qemu/optee_os/lib/libutee/arch/arm/utee_misc.c:70
    203c:	e96d 7e02 	strd	r7, lr, [sp, #-8]!
    2040:	b082      	sub	sp, #8
    2042:	af00      	add	r7, sp, #0
    2044:	6078      	str	r0, [r7, #4]
    2046:	6039      	str	r1, [r7, #0]
/home/ocean/projects/invisiblecode/invisible-code/optee_qemu/optee_os/lib/libutee/arch/arm/utee_misc.c:71
    2048:	6839      	ldr	r1, [r7, #0]
    204a:	6878      	ldr	r0, [r7, #4]
    204c:	f7fe ec72 	blx	934 <utee_cryp_random_number_generate>
    2050:	4603      	mov	r3, r0
/home/ocean/projects/invisiblecode/invisible-code/optee_qemu/optee_os/lib/libutee/arch/arm/utee_misc.c:72
    2052:	4618      	mov	r0, r3
    2054:	f107 0708 	add.w	r7, r7, #8
    2058:	46bd      	mov	sp, r7
    205a:	bd80      	pop	{r7, pc}

0000205c <buf_addr>:
buf_addr():
/home/ocean/projects/invisiblecode/invisible-code/optee_qemu/optee_os/lib/libutee/tee_user_mem.c:130
    205c:	f84d 7d04 	str.w	r7, [sp, #-4]!
    2060:	b083      	sub	sp, #12
    2062:	af00      	add	r7, sp, #0
    2064:	6078      	str	r0, [r7, #4]
/home/ocean/projects/invisiblecode/invisible-code/optee_qemu/optee_os/lib/libutee/tee_user_mem.c:131
    2066:	687b      	ldr	r3, [r7, #4]
    2068:	f103 0310 	add.w	r3, r3, #16
/home/ocean/projects/invisiblecode/invisible-code/optee_qemu/optee_os/lib/libutee/tee_user_mem.c:132
    206c:	4618      	mov	r0, r3
    206e:	f107 070c 	add.w	r7, r7, #12
    2072:	46bd      	mov	sp, r7
    2074:	f85d 7b04 	ldr.w	r7, [sp], #4
    2078:	4770      	bx	lr
    207a:	bf00      	nop

0000207c <buf_size>:
buf_size():
/home/ocean/projects/invisiblecode/invisible-code/optee_qemu/optee_os/lib/libutee/tee_user_mem.c:135
    207c:	f84d 7d04 	str.w	r7, [sp, #-4]!
    2080:	b083      	sub	sp, #12
    2082:	af00      	add	r7, sp, #0
    2084:	6078      	str	r0, [r7, #4]
/home/ocean/projects/invisiblecode/invisible-code/optee_qemu/optee_os/lib/libutee/tee_user_mem.c:136
    2086:	687b      	ldr	r3, [r7, #4]
    2088:	689b      	ldr	r3, [r3, #8]
    208a:	f04f 0201 	mov.w	r2, #1
    208e:	eba3 0302 	sub.w	r3, r3, r2
    2092:	f1a3 0310 	sub.w	r3, r3, #16
/home/ocean/projects/invisiblecode/invisible-code/optee_qemu/optee_os/lib/libutee/tee_user_mem.c:137
    2096:	4618      	mov	r0, r3
    2098:	f107 070c 	add.w	r7, r7, #12
    209c:	46bd      	mov	sp, r7
    209e:	f85d 7b04 	ldr.w	r7, [sp], #4
    20a2:	4770      	bx	lr

000020a4 <elem_addr>:
elem_addr():
/home/ocean/projects/invisiblecode/invisible-code/optee_qemu/optee_os/lib/libutee/tee_user_mem.c:140
    20a4:	f84d 7d04 	str.w	r7, [sp, #-4]!
    20a8:	b083      	sub	sp, #12
    20aa:	af00      	add	r7, sp, #0
    20ac:	6078      	str	r0, [r7, #4]
/home/ocean/projects/invisiblecode/invisible-code/optee_qemu/optee_os/lib/libutee/tee_user_mem.c:141
    20ae:	687b      	ldr	r3, [r7, #4]
    20b0:	f1a3 0310 	sub.w	r3, r3, #16
/home/ocean/projects/invisiblecode/invisible-code/optee_qemu/optee_os/lib/libutee/tee_user_mem.c:142
    20b4:	4618      	mov	r0, r3
    20b6:	f107 070c 	add.w	r7, r7, #12
    20ba:	46bd      	mov	sp, r7
    20bc:	f85d 7b04 	ldr.w	r7, [sp], #4
    20c0:	4770      	bx	lr
    20c2:	bf00      	nop

000020c4 <is_buffer_valid>:
is_buffer_valid():
/home/ocean/projects/invisiblecode/invisible-code/optee_qemu/optee_os/lib/libutee/tee_user_mem.c:148
    20c4:	e96d 7e02 	strd	r7, lr, [sp, #-8]!
    20c8:	b084      	sub	sp, #16
    20ca:	af00      	add	r7, sp, #0
    20cc:	6078      	str	r0, [r7, #4]
/home/ocean/projects/invisiblecode/invisible-code/optee_qemu/optee_os/lib/libutee/tee_user_mem.c:151
    20ce:	4b0e      	ldr	r3, [pc, #56]	; (2108 <is_buffer_valid+0x44>)
    20d0:	447b      	add	r3, pc
    20d2:	681b      	ldr	r3, [r3, #0]
    20d4:	60fb      	str	r3, [r7, #12]
    20d6:	e00c      	b.n	20f2 <is_buffer_valid+0x2e>
/home/ocean/projects/invisiblecode/invisible-code/optee_qemu/optee_os/lib/libutee/tee_user_mem.c:152
    20d8:	68f8      	ldr	r0, [r7, #12]
    20da:	f7ff ffbf 	bl	205c <buf_addr>
    20de:	4602      	mov	r2, r0
    20e0:	687b      	ldr	r3, [r7, #4]
    20e2:	429a      	cmp	r2, r3
    20e4:	d102      	bne.n	20ec <is_buffer_valid+0x28>
/home/ocean/projects/invisiblecode/invisible-code/optee_qemu/optee_os/lib/libutee/tee_user_mem.c:153
    20e6:	f04f 0301 	mov.w	r3, #1
    20ea:	e007      	b.n	20fc <is_buffer_valid+0x38>
/home/ocean/projects/invisiblecode/invisible-code/optee_qemu/optee_os/lib/libutee/tee_user_mem.c:151 (discriminator 2)
    20ec:	68fb      	ldr	r3, [r7, #12]
    20ee:	681b      	ldr	r3, [r3, #0]
    20f0:	60fb      	str	r3, [r7, #12]
/home/ocean/projects/invisiblecode/invisible-code/optee_qemu/optee_os/lib/libutee/tee_user_mem.c:151 (discriminator 1)
    20f2:	68fb      	ldr	r3, [r7, #12]
    20f4:	2b00      	cmp	r3, #0
    20f6:	d1ef      	bne.n	20d8 <is_buffer_valid+0x14>
/home/ocean/projects/invisiblecode/invisible-code/optee_qemu/optee_os/lib/libutee/tee_user_mem.c:155
    20f8:	f04f 0300 	mov.w	r3, #0
/home/ocean/projects/invisiblecode/invisible-code/optee_qemu/optee_os/lib/libutee/tee_user_mem.c:156
    20fc:	4618      	mov	r0, r3
    20fe:	f107 0710 	add.w	r7, r7, #16
    2102:	46bd      	mov	sp, r7
    2104:	bd80      	pop	{r7, pc}
    2106:	bf00      	nop
    2108:	0000afac 	.word	0x0000afac

0000210c <print_buf>:
print_buf():
/home/ocean/projects/invisiblecode/invisible-code/optee_qemu/optee_os/lib/libutee/tee_user_mem.c:165
    210c:	f84d 4d0c 	str.w	r4, [sp, #-12]!
    2110:	e9cd 7e01 	strd	r7, lr, [sp, #4]
    2114:	b08d      	sub	sp, #52	; 0x34
    2116:	af08      	add	r7, sp, #32
    2118:	60f8      	str	r0, [r7, #12]
    211a:	60b9      	str	r1, [r7, #8]
    211c:	607a      	str	r2, [r7, #4]
    211e:	603b      	str	r3, [r7, #0]
/home/ocean/projects/invisiblecode/invisible-code/optee_qemu/optee_os/lib/libutee/tee_user_mem.c:166
    2120:	6a38      	ldr	r0, [r7, #32]
    2122:	f7ff ff9b 	bl	205c <buf_addr>
    2126:	4604      	mov	r4, r0
    2128:	6a38      	ldr	r0, [r7, #32]
    212a:	f7ff ffa7 	bl	207c <buf_size>
    212e:	4603      	mov	r3, r0
    2130:	9306      	str	r3, [sp, #24]
    2132:	9405      	str	r4, [sp, #20]
    2134:	6a3b      	ldr	r3, [r7, #32]
    2136:	9304      	str	r3, [sp, #16]
    2138:	683b      	ldr	r3, [r7, #0]
    213a:	9303      	str	r3, [sp, #12]
    213c:	687b      	ldr	r3, [r7, #4]
    213e:	9302      	str	r3, [sp, #8]
    2140:	68bb      	ldr	r3, [r7, #8]
    2142:	9301      	str	r3, [sp, #4]
    2144:	4b0a      	ldr	r3, [pc, #40]	; (2170 <print_buf+0x64>)
    2146:	447b      	add	r3, pc
    2148:	9300      	str	r3, [sp, #0]
    214a:	f04f 0301 	mov.w	r3, #1
    214e:	68fa      	ldr	r2, [r7, #12]
    2150:	f04f 0100 	mov.w	r1, #0
    2154:	f04f 0000 	mov.w	r0, #0
    2158:	f003 fb60 	bl	581c <trace_printf>
/home/ocean/projects/invisiblecode/invisible-code/optee_qemu/optee_os/lib/libutee/tee_user_mem.c:169
    215c:	bf00      	nop
    215e:	f107 0714 	add.w	r7, r7, #20
    2162:	46bd      	mov	sp, r7
    2164:	e9dd 4700 	ldrd	r4, r7, [sp]
    2168:	b002      	add	sp, #8
    216a:	f85d fb04 	ldr.w	pc, [sp], #4
    216e:	bf00      	nop
    2170:	00008a92 	.word	0x00008a92

00002174 <heap_inc>:
heap_inc():
/home/ocean/projects/invisiblecode/invisible-code/optee_qemu/optee_os/lib/libutee/tee_user_mem.c:195
    2174:	f84d 7d04 	str.w	r7, [sp, #-4]!
    2178:	b083      	sub	sp, #12
    217a:	af00      	add	r7, sp, #0
    217c:	6078      	str	r0, [r7, #4]
/home/ocean/projects/invisiblecode/invisible-code/optee_qemu/optee_os/lib/libutee/tee_user_mem.c:197
    217e:	4b0f      	ldr	r3, [pc, #60]	; (21bc <heap_inc+0x48>)
    2180:	447b      	add	r3, pc
    2182:	681a      	ldr	r2, [r3, #0]
    2184:	687b      	ldr	r3, [r7, #4]
    2186:	4413      	add	r3, r2
    2188:	4a0d      	ldr	r2, [pc, #52]	; (21c0 <heap_inc+0x4c>)
    218a:	447a      	add	r2, pc
    218c:	6013      	str	r3, [r2, #0]
/home/ocean/projects/invisiblecode/invisible-code/optee_qemu/optee_os/lib/libutee/tee_user_mem.c:199
    218e:	4b0d      	ldr	r3, [pc, #52]	; (21c4 <heap_inc+0x50>)
    2190:	447b      	add	r3, pc
    2192:	681b      	ldr	r3, [r3, #0]
    2194:	f103 0301 	add.w	r3, r3, #1
    2198:	4a0b      	ldr	r2, [pc, #44]	; (21c8 <heap_inc+0x54>)
    219a:	447a      	add	r2, pc
    219c:	6013      	str	r3, [r2, #0]
/home/ocean/projects/invisiblecode/invisible-code/optee_qemu/optee_os/lib/libutee/tee_user_mem.c:200
    219e:	4b0b      	ldr	r3, [pc, #44]	; (21cc <heap_inc+0x58>)
    21a0:	447b      	add	r3, pc
    21a2:	685a      	ldr	r2, [r3, #4]
    21a4:	687b      	ldr	r3, [r7, #4]
    21a6:	4413      	add	r3, r2
    21a8:	4a09      	ldr	r2, [pc, #36]	; (21d0 <heap_inc+0x5c>)
    21aa:	447a      	add	r2, pc
    21ac:	6053      	str	r3, [r2, #4]
/home/ocean/projects/invisiblecode/invisible-code/optee_qemu/optee_os/lib/libutee/tee_user_mem.c:202
    21ae:	bf00      	nop
    21b0:	f107 070c 	add.w	r7, r7, #12
    21b4:	46bd      	mov	sp, r7
    21b6:	f85d 7b04 	ldr.w	r7, [sp], #4
    21ba:	4770      	bx	lr
    21bc:	00014a44 	.word	0x00014a44
    21c0:	00014a3a 	.word	0x00014a3a
    21c4:	00014a38 	.word	0x00014a38
    21c8:	00014a2e 	.word	0x00014a2e
    21cc:	00014a28 	.word	0x00014a28
    21d0:	00014a1e 	.word	0x00014a1e

000021d4 <heap_dec>:
heap_dec():
/home/ocean/projects/invisiblecode/invisible-code/optee_qemu/optee_os/lib/libutee/tee_user_mem.c:205
    21d4:	f84d 7d04 	str.w	r7, [sp, #-4]!
    21d8:	b083      	sub	sp, #12
    21da:	af00      	add	r7, sp, #0
    21dc:	6078      	str	r0, [r7, #4]
/home/ocean/projects/invisiblecode/invisible-code/optee_qemu/optee_os/lib/libutee/tee_user_mem.c:207
    21de:	4b10      	ldr	r3, [pc, #64]	; (2220 <heap_dec+0x4c>)
    21e0:	447b      	add	r3, pc
    21e2:	681a      	ldr	r2, [r3, #0]
    21e4:	687b      	ldr	r3, [r7, #4]
    21e6:	eba2 0303 	sub.w	r3, r2, r3
    21ea:	4a0e      	ldr	r2, [pc, #56]	; (2224 <heap_dec+0x50>)
    21ec:	447a      	add	r2, pc
    21ee:	6013      	str	r3, [r2, #0]
/home/ocean/projects/invisiblecode/invisible-code/optee_qemu/optee_os/lib/libutee/tee_user_mem.c:209
    21f0:	4b0d      	ldr	r3, [pc, #52]	; (2228 <heap_dec+0x54>)
    21f2:	447b      	add	r3, pc
    21f4:	681b      	ldr	r3, [r3, #0]
    21f6:	f103 33ff 	add.w	r3, r3, #4294967295	; 0xffffffff
    21fa:	4a0c      	ldr	r2, [pc, #48]	; (222c <heap_dec+0x58>)
    21fc:	447a      	add	r2, pc
    21fe:	6013      	str	r3, [r2, #0]
/home/ocean/projects/invisiblecode/invisible-code/optee_qemu/optee_os/lib/libutee/tee_user_mem.c:210
    2200:	4b0b      	ldr	r3, [pc, #44]	; (2230 <heap_dec+0x5c>)
    2202:	447b      	add	r3, pc
    2204:	685a      	ldr	r2, [r3, #4]
    2206:	687b      	ldr	r3, [r7, #4]
    2208:	eba2 0303 	sub.w	r3, r2, r3
    220c:	4a09      	ldr	r2, [pc, #36]	; (2234 <heap_dec+0x60>)
    220e:	447a      	add	r2, pc
    2210:	6053      	str	r3, [r2, #4]
/home/ocean/projects/invisiblecode/invisible-code/optee_qemu/optee_os/lib/libutee/tee_user_mem.c:212
    2212:	bf00      	nop
    2214:	f107 070c 	add.w	r7, r7, #12
    2218:	46bd      	mov	sp, r7
    221a:	f85d 7b04 	ldr.w	r7, [sp], #4
    221e:	4770      	bx	lr
    2220:	000149e4 	.word	0x000149e4
    2224:	000149d8 	.word	0x000149d8
    2228:	000149d6 	.word	0x000149d6
    222c:	000149cc 	.word	0x000149cc
    2230:	000149c6 	.word	0x000149c6
    2234:	000149ba 	.word	0x000149ba

00002238 <check_elem_end>:
check_elem_end():
/home/ocean/projects/invisiblecode/invisible-code/optee_qemu/optee_os/lib/libutee/tee_user_mem.c:218
    2238:	e96d 7e02 	strd	r7, lr, [sp, #-8]!
    223c:	b086      	sub	sp, #24
    223e:	af02      	add	r7, sp, #8
    2240:	6078      	str	r0, [r7, #4]
/home/ocean/projects/invisiblecode/invisible-code/optee_qemu/optee_os/lib/libutee/tee_user_mem.c:219
    2242:	687b      	ldr	r3, [r7, #4]
    2244:	60fb      	str	r3, [r7, #12]
/home/ocean/projects/invisiblecode/invisible-code/optee_qemu/optee_os/lib/libutee/tee_user_mem.c:226
    2246:	687b      	ldr	r3, [r7, #4]
    2248:	689b      	ldr	r3, [r3, #8]
    224a:	f04f 0201 	mov.w	r2, #1
    224e:	eba3 0302 	sub.w	r3, r3, r2
    2252:	68fa      	ldr	r2, [r7, #12]
    2254:	4413      	add	r3, r2
    2256:	781b      	ldrb	r3, [r3, #0]
    2258:	461a      	mov	r2, r3
/home/ocean/projects/invisiblecode/invisible-code/optee_qemu/optee_os/lib/libutee/tee_user_mem.c:227
    225a:	68fb      	ldr	r3, [r7, #12]
    225c:	b2db      	uxtb	r3, r3
    225e:	f083 03c5 	eor.w	r3, r3, #197	; 0xc5
/home/ocean/projects/invisiblecode/invisible-code/optee_qemu/optee_os/lib/libutee/tee_user_mem.c:226
    2262:	429a      	cmp	r2, r3
    2264:	d00e      	beq.n	2284 <check_elem_end+0x4c>
/home/ocean/projects/invisiblecode/invisible-code/optee_qemu/optee_os/lib/libutee/tee_user_mem.c:228
    2266:	687b      	ldr	r3, [r7, #4]
    2268:	9300      	str	r3, [sp, #0]
    226a:	4b0a      	ldr	r3, [pc, #40]	; (2294 <check_elem_end+0x5c>)
    226c:	447b      	add	r3, pc
    226e:	f04f 02e4 	mov.w	r2, #228	; 0xe4
    2272:	4909      	ldr	r1, [pc, #36]	; (2298 <check_elem_end+0x60>)
    2274:	4479      	add	r1, pc
    2276:	f04f 0001 	mov.w	r0, #1
    227a:	f7ff ff47 	bl	210c <print_buf>
/home/ocean/projects/invisiblecode/invisible-code/optee_qemu/optee_os/lib/libutee/tee_user_mem.c:229
    227e:	f04f 0300 	mov.w	r3, #0
    2282:	e001      	b.n	2288 <check_elem_end+0x50>
/home/ocean/projects/invisiblecode/invisible-code/optee_qemu/optee_os/lib/libutee/tee_user_mem.c:232
    2284:	f04f 0301 	mov.w	r3, #1
/home/ocean/projects/invisiblecode/invisible-code/optee_qemu/optee_os/lib/libutee/tee_user_mem.c:233
    2288:	4618      	mov	r0, r3
    228a:	f107 0710 	add.w	r7, r7, #16
    228e:	46bd      	mov	sp, r7
    2290:	bd80      	pop	{r7, pc}
    2292:	bf00      	nop
    2294:	00008990 	.word	0x00008990
    2298:	00008a6c 	.word	0x00008a6c

0000229c <check_elem>:
check_elem():
/home/ocean/projects/invisiblecode/invisible-code/optee_qemu/optee_os/lib/libutee/tee_user_mem.c:236
    229c:	e96d 7e02 	strd	r7, lr, [sp, #-8]!
    22a0:	b086      	sub	sp, #24
    22a2:	af02      	add	r7, sp, #8
    22a4:	6078      	str	r0, [r7, #4]
/home/ocean/projects/invisiblecode/invisible-code/optee_qemu/optee_os/lib/libutee/tee_user_mem.c:240
    22a6:	687b      	ldr	r3, [r7, #4]
    22a8:	2b00      	cmp	r3, #0
    22aa:	d102      	bne.n	22b2 <check_elem+0x16>
/home/ocean/projects/invisiblecode/invisible-code/optee_qemu/optee_os/lib/libutee/tee_user_mem.c:241
    22ac:	f04f 0300 	mov.w	r3, #0
    22b0:	e061      	b.n	2376 <check_elem+0xda>
/home/ocean/projects/invisiblecode/invisible-code/optee_qemu/optee_os/lib/libutee/tee_user_mem.c:243
    22b2:	687b      	ldr	r3, [r7, #4]
    22b4:	f003 0303 	and.w	r3, r3, #3
    22b8:	2b00      	cmp	r3, #0
    22ba:	d020      	beq.n	22fe <check_elem+0x62>
/home/ocean/projects/invisiblecode/invisible-code/optee_qemu/optee_os/lib/libutee/tee_user_mem.c:244
    22bc:	4b30      	ldr	r3, [pc, #192]	; (2380 <check_elem+0xe4>)
    22be:	447b      	add	r3, pc
    22c0:	9300      	str	r3, [sp, #0]
    22c2:	f04f 0301 	mov.w	r3, #1
    22c6:	f04f 0201 	mov.w	r2, #1
    22ca:	f04f 01f4 	mov.w	r1, #244	; 0xf4
    22ce:	482d      	ldr	r0, [pc, #180]	; (2384 <check_elem+0xe8>)
    22d0:	4478      	add	r0, pc
    22d2:	f003 faa3 	bl	581c <trace_printf>
/home/ocean/projects/invisiblecode/invisible-code/optee_qemu/optee_os/lib/libutee/tee_user_mem.c:245
    22d6:	f04f 0300 	mov.w	r3, #0
    22da:	9301      	str	r3, [sp, #4]
    22dc:	4b2a      	ldr	r3, [pc, #168]	; (2388 <check_elem+0xec>)
    22de:	447b      	add	r3, pc
    22e0:	9300      	str	r3, [sp, #0]
    22e2:	f04f 0301 	mov.w	r3, #1
    22e6:	f04f 0201 	mov.w	r2, #1
    22ea:	f04f 01f5 	mov.w	r1, #245	; 0xf5
    22ee:	4827      	ldr	r0, [pc, #156]	; (238c <check_elem+0xf0>)
    22f0:	4478      	add	r0, pc
    22f2:	f003 fa93 	bl	581c <trace_printf>
    22f6:	f04f 0000 	mov.w	r0, #0
    22fa:	f7ff fe49 	bl	1f90 <__TEE_Panic>
/home/ocean/projects/invisiblecode/invisible-code/optee_qemu/optee_os/lib/libutee/tee_user_mem.c:248
    22fe:	687b      	ldr	r3, [r7, #4]
    2300:	681b      	ldr	r3, [r3, #0]
    2302:	60fb      	str	r3, [r7, #12]
/home/ocean/projects/invisiblecode/invisible-code/optee_qemu/optee_os/lib/libutee/tee_user_mem.c:249
    2304:	68fb      	ldr	r3, [r7, #12]
    2306:	2b00      	cmp	r3, #0
    2308:	d015      	beq.n	2336 <check_elem+0x9a>
/home/ocean/projects/invisiblecode/invisible-code/optee_qemu/optee_os/lib/libutee/tee_user_mem.c:249 (discriminator 1)
    230a:	68fb      	ldr	r3, [r7, #12]
    230c:	685b      	ldr	r3, [r3, #4]
    230e:	685b      	ldr	r3, [r3, #4]
    2310:	681a      	ldr	r2, [r3, #0]
    2312:	687b      	ldr	r3, [r7, #4]
    2314:	429a      	cmp	r2, r3
    2316:	d00e      	beq.n	2336 <check_elem+0x9a>
/home/ocean/projects/invisiblecode/invisible-code/optee_qemu/optee_os/lib/libutee/tee_user_mem.c:250
    2318:	68fb      	ldr	r3, [r7, #12]
    231a:	9300      	str	r3, [sp, #0]
    231c:	4b1c      	ldr	r3, [pc, #112]	; (2390 <check_elem+0xf4>)
    231e:	447b      	add	r3, pc
    2320:	f04f 02fa 	mov.w	r2, #250	; 0xfa
    2324:	491b      	ldr	r1, [pc, #108]	; (2394 <check_elem+0xf8>)
    2326:	4479      	add	r1, pc
    2328:	f04f 0001 	mov.w	r0, #1
    232c:	f7ff feee 	bl	210c <print_buf>
/home/ocean/projects/invisiblecode/invisible-code/optee_qemu/optee_os/lib/libutee/tee_user_mem.c:251
    2330:	f04f 0300 	mov.w	r3, #0
    2334:	e01f      	b.n	2376 <check_elem+0xda>
/home/ocean/projects/invisiblecode/invisible-code/optee_qemu/optee_os/lib/libutee/tee_user_mem.c:254
    2336:	687b      	ldr	r3, [r7, #4]
    2338:	685b      	ldr	r3, [r3, #4]
    233a:	685b      	ldr	r3, [r3, #4]
    233c:	681b      	ldr	r3, [r3, #0]
    233e:	60fb      	str	r3, [r7, #12]
/home/ocean/projects/invisiblecode/invisible-code/optee_qemu/optee_os/lib/libutee/tee_user_mem.c:255
    2340:	68fb      	ldr	r3, [r7, #12]
    2342:	2b00      	cmp	r3, #0
    2344:	d013      	beq.n	236e <check_elem+0xd2>
/home/ocean/projects/invisiblecode/invisible-code/optee_qemu/optee_os/lib/libutee/tee_user_mem.c:255 (discriminator 1)
    2346:	68fb      	ldr	r3, [r7, #12]
    2348:	681a      	ldr	r2, [r3, #0]
    234a:	687b      	ldr	r3, [r7, #4]
    234c:	429a      	cmp	r2, r3
    234e:	d00e      	beq.n	236e <check_elem+0xd2>
/home/ocean/projects/invisiblecode/invisible-code/optee_qemu/optee_os/lib/libutee/tee_user_mem.c:256
    2350:	68fb      	ldr	r3, [r7, #12]
    2352:	9300      	str	r3, [sp, #0]
    2354:	4b10      	ldr	r3, [pc, #64]	; (2398 <check_elem+0xfc>)
    2356:	447b      	add	r3, pc
    2358:	f44f 7280 	mov.w	r2, #256	; 0x100
    235c:	490f      	ldr	r1, [pc, #60]	; (239c <check_elem+0x100>)
    235e:	4479      	add	r1, pc
    2360:	f04f 0001 	mov.w	r0, #1
    2364:	f7ff fed2 	bl	210c <print_buf>
/home/ocean/projects/invisiblecode/invisible-code/optee_qemu/optee_os/lib/libutee/tee_user_mem.c:257
    2368:	f04f 0300 	mov.w	r3, #0
    236c:	e003      	b.n	2376 <check_elem+0xda>
/home/ocean/projects/invisiblecode/invisible-code/optee_qemu/optee_os/lib/libutee/tee_user_mem.c:260
    236e:	6878      	ldr	r0, [r7, #4]
    2370:	f7ff ff62 	bl	2238 <check_elem_end>
    2374:	4603      	mov	r3, r0
/home/ocean/projects/invisiblecode/invisible-code/optee_qemu/optee_os/lib/libutee/tee_user_mem.c:261
    2376:	4618      	mov	r0, r3
    2378:	f107 0710 	add.w	r7, r7, #16
    237c:	46bd      	mov	sp, r7
    237e:	bd80      	pop	{r7, pc}
    2380:	0000894a 	.word	0x0000894a
    2384:	00008a20 	.word	0x00008a20
    2388:	00008942 	.word	0x00008942
    238c:	00008a00 	.word	0x00008a00
    2390:	0000890e 	.word	0x0000890e
    2394:	000089ca 	.word	0x000089ca
    2398:	000088d6 	.word	0x000088d6
    239c:	00008992 	.word	0x00008992

000023a0 <is_mem_coherent>:
is_mem_coherent():
/home/ocean/projects/invisiblecode/invisible-code/optee_qemu/optee_os/lib/libutee/tee_user_mem.c:265
    23a0:	e96d 7e02 	strd	r7, lr, [sp, #-8]!
    23a4:	b082      	sub	sp, #8
    23a6:	af00      	add	r7, sp, #0
/home/ocean/projects/invisiblecode/invisible-code/optee_qemu/optee_os/lib/libutee/tee_user_mem.c:268
    23a8:	4b11      	ldr	r3, [pc, #68]	; (23f0 <is_mem_coherent+0x50>)
    23aa:	447b      	add	r3, pc
    23ac:	681b      	ldr	r3, [r3, #0]
    23ae:	607b      	str	r3, [r7, #4]
    23b0:	e014      	b.n	23dc <is_mem_coherent+0x3c>
/home/ocean/projects/invisiblecode/invisible-code/optee_qemu/optee_os/lib/libutee/tee_user_mem.c:269
    23b2:	6878      	ldr	r0, [r7, #4]
    23b4:	f7ff ff72 	bl	229c <check_elem>
    23b8:	4603      	mov	r3, r0
    23ba:	2b00      	cmp	r3, #0
    23bc:	d10b      	bne.n	23d6 <is_mem_coherent+0x36>
/home/ocean/projects/invisiblecode/invisible-code/optee_qemu/optee_os/lib/libutee/tee_user_mem.c:270 (discriminator 1)
    23be:	4b0d      	ldr	r3, [pc, #52]	; (23f4 <is_mem_coherent+0x54>)
    23c0:	447b      	add	r3, pc
    23c2:	f44f 7287 	mov.w	r2, #270	; 0x10e
    23c6:	490c      	ldr	r1, [pc, #48]	; (23f8 <is_mem_coherent+0x58>)
    23c8:	4479      	add	r1, pc
    23ca:	480c      	ldr	r0, [pc, #48]	; (23fc <is_mem_coherent+0x5c>)
    23cc:	4478      	add	r0, pc
    23ce:	f000 faf7 	bl	29c0 <_assert_log>
    23d2:	f000 fb19 	bl	2a08 <_assert_break>
/home/ocean/projects/invisiblecode/invisible-code/optee_qemu/optee_os/lib/libutee/tee_user_mem.c:268 (discriminator 2)
    23d6:	687b      	ldr	r3, [r7, #4]
    23d8:	681b      	ldr	r3, [r3, #0]
    23da:	607b      	str	r3, [r7, #4]
/home/ocean/projects/invisiblecode/invisible-code/optee_qemu/optee_os/lib/libutee/tee_user_mem.c:268 (discriminator 1)
    23dc:	687b      	ldr	r3, [r7, #4]
    23de:	2b00      	cmp	r3, #0
    23e0:	d1e7      	bne.n	23b2 <is_mem_coherent+0x12>
/home/ocean/projects/invisiblecode/invisible-code/optee_qemu/optee_os/lib/libutee/tee_user_mem.c:274
    23e2:	f04f 0301 	mov.w	r3, #1
/home/ocean/projects/invisiblecode/invisible-code/optee_qemu/optee_os/lib/libutee/tee_user_mem.c:275
    23e6:	4618      	mov	r0, r3
    23e8:	f107 0708 	add.w	r7, r7, #8
    23ec:	46bd      	mov	sp, r7
    23ee:	bd80      	pop	{r7, pc}
    23f0:	0000acd2 	.word	0x0000acd2
    23f4:	0000893c 	.word	0x0000893c
    23f8:	00008870 	.word	0x00008870
    23fc:	00008888 	.word	0x00008888

00002400 <tee_user_mem_alloc>:
tee_user_mem_alloc():
/home/ocean/projects/invisiblecode/invisible-code/optee_qemu/optee_os/lib/libutee/tee_user_mem.c:297
    2400:	e96d 7e02 	strd	r7, lr, [sp, #-8]!
    2404:	b088      	sub	sp, #32
    2406:	af02      	add	r7, sp, #8
    2408:	6078      	str	r0, [r7, #4]
    240a:	6039      	str	r1, [r7, #0]
/home/ocean/projects/invisiblecode/invisible-code/optee_qemu/optee_os/lib/libutee/tee_user_mem.c:299
    240c:	f04f 0300 	mov.w	r3, #0
    2410:	617b      	str	r3, [r7, #20]
/home/ocean/projects/invisiblecode/invisible-code/optee_qemu/optee_os/lib/libutee/tee_user_mem.c:301
    2412:	f04f 0201 	mov.w	r2, #1
    2416:	687b      	ldr	r3, [r7, #4]
    2418:	4413      	add	r3, r2
/home/ocean/projects/invisiblecode/invisible-code/optee_qemu/optee_os/lib/libutee/tee_user_mem.c:300
    241a:	f103 0310 	add.w	r3, r3, #16
    241e:	613b      	str	r3, [r7, #16]
/home/ocean/projects/invisiblecode/invisible-code/optee_qemu/optee_os/lib/libutee/tee_user_mem.c:306
    2420:	687b      	ldr	r3, [r7, #4]
    2422:	2b00      	cmp	r3, #0
    2424:	da02      	bge.n	242c <tee_user_mem_alloc+0x2c>
/home/ocean/projects/invisiblecode/invisible-code/optee_qemu/optee_os/lib/libutee/tee_user_mem.c:308
    2426:	f04f 0300 	mov.w	r3, #0
    242a:	e077      	b.n	251c <tee_user_mem_alloc+0x11c>
/home/ocean/projects/invisiblecode/invisible-code/optee_qemu/optee_os/lib/libutee/tee_user_mem.c:311
    242c:	687b      	ldr	r3, [r7, #4]
    242e:	2b00      	cmp	r3, #0
    2430:	d103      	bne.n	243a <tee_user_mem_alloc+0x3a>
/home/ocean/projects/invisiblecode/invisible-code/optee_qemu/optee_os/lib/libutee/tee_user_mem.c:313
    2432:	4b3d      	ldr	r3, [pc, #244]	; (2528 <tee_user_mem_alloc+0x128>)
    2434:	447b      	add	r3, pc
    2436:	681b      	ldr	r3, [r3, #0]
    2438:	e070      	b.n	251c <tee_user_mem_alloc+0x11c>
/home/ocean/projects/invisiblecode/invisible-code/optee_qemu/optee_os/lib/libutee/tee_user_mem.c:317
    243a:	683b      	ldr	r3, [r7, #0]
    243c:	2b00      	cmp	r3, #0
    243e:	d014      	beq.n	246a <tee_user_mem_alloc+0x6a>
    2440:	f1b3 4f00 	cmp.w	r3, #2147483648	; 0x80000000
    2444:	d011      	beq.n	246a <tee_user_mem_alloc+0x6a>
/home/ocean/projects/invisiblecode/invisible-code/optee_qemu/optee_os/lib/libutee/tee_user_mem.c:322
    2446:	683b      	ldr	r3, [r7, #0]
    2448:	9301      	str	r3, [sp, #4]
    244a:	4b38      	ldr	r3, [pc, #224]	; (252c <tee_user_mem_alloc+0x12c>)
    244c:	447b      	add	r3, pc
    244e:	9300      	str	r3, [sp, #0]
    2450:	f04f 0301 	mov.w	r3, #1
    2454:	f04f 0201 	mov.w	r2, #1
    2458:	f44f 71a1 	mov.w	r1, #322	; 0x142
    245c:	4834      	ldr	r0, [pc, #208]	; (2530 <tee_user_mem_alloc+0x130>)
    245e:	4478      	add	r0, pc
    2460:	f003 f9dc 	bl	581c <trace_printf>
/home/ocean/projects/invisiblecode/invisible-code/optee_qemu/optee_os/lib/libutee/tee_user_mem.c:324
    2464:	f04f 0300 	mov.w	r3, #0
    2468:	e058      	b.n	251c <tee_user_mem_alloc+0x11c>
/home/ocean/projects/invisiblecode/invisible-code/optee_qemu/optee_os/lib/libutee/tee_user_mem.c:320
    246a:	bf00      	nop
/home/ocean/projects/invisiblecode/invisible-code/optee_qemu/optee_os/lib/libutee/tee_user_mem.c:327
    246c:	6938      	ldr	r0, [r7, #16]
    246e:	f7ff fda9 	bl	1fc4 <utee_malloc>
    2472:	60f8      	str	r0, [r7, #12]
/home/ocean/projects/invisiblecode/invisible-code/optee_qemu/optee_os/lib/libutee/tee_user_mem.c:328
    2474:	68fb      	ldr	r3, [r7, #12]
    2476:	2b00      	cmp	r3, #0
    2478:	d04f      	beq.n	251a <tee_user_mem_alloc+0x11a>
/home/ocean/projects/invisiblecode/invisible-code/optee_qemu/optee_os/lib/libutee/tee_user_mem.c:329
    247a:	68fb      	ldr	r3, [r7, #12]
    247c:	60bb      	str	r3, [r7, #8]
/home/ocean/projects/invisiblecode/invisible-code/optee_qemu/optee_os/lib/libutee/tee_user_mem.c:330
    247e:	68bb      	ldr	r3, [r7, #8]
    2480:	693a      	ldr	r2, [r7, #16]
    2482:	609a      	str	r2, [r3, #8]
/home/ocean/projects/invisiblecode/invisible-code/optee_qemu/optee_os/lib/libutee/tee_user_mem.c:331
    2484:	68bb      	ldr	r3, [r7, #8]
    2486:	683a      	ldr	r2, [r7, #0]
    2488:	60da      	str	r2, [r3, #12]
/home/ocean/projects/invisiblecode/invisible-code/optee_qemu/optee_os/lib/libutee/tee_user_mem.c:332
    248a:	6938      	ldr	r0, [r7, #16]
    248c:	f7ff fe72 	bl	2174 <heap_inc>
/home/ocean/projects/invisiblecode/invisible-code/optee_qemu/optee_os/lib/libutee/tee_user_mem.c:335
    2490:	68bb      	ldr	r3, [r7, #8]
    2492:	f04f 0200 	mov.w	r2, #0
    2496:	601a      	str	r2, [r3, #0]
    2498:	4b26      	ldr	r3, [pc, #152]	; (2534 <tee_user_mem_alloc+0x134>)
    249a:	447b      	add	r3, pc
    249c:	685a      	ldr	r2, [r3, #4]
    249e:	68bb      	ldr	r3, [r7, #8]
    24a0:	605a      	str	r2, [r3, #4]
    24a2:	4b25      	ldr	r3, [pc, #148]	; (2538 <tee_user_mem_alloc+0x138>)
    24a4:	447b      	add	r3, pc
    24a6:	685b      	ldr	r3, [r3, #4]
    24a8:	68ba      	ldr	r2, [r7, #8]
    24aa:	601a      	str	r2, [r3, #0]
    24ac:	68bb      	ldr	r3, [r7, #8]
    24ae:	4a23      	ldr	r2, [pc, #140]	; (253c <tee_user_mem_alloc+0x13c>)
    24b0:	447a      	add	r2, pc
    24b2:	6053      	str	r3, [r2, #4]
/home/ocean/projects/invisiblecode/invisible-code/optee_qemu/optee_os/lib/libutee/tee_user_mem.c:339
    24b4:	f04f 0201 	mov.w	r2, #1
    24b8:	693b      	ldr	r3, [r7, #16]
    24ba:	eba3 0302 	sub.w	r3, r3, r2
    24be:	68fa      	ldr	r2, [r7, #12]
    24c0:	441a      	add	r2, r3
    24c2:	68fb      	ldr	r3, [r7, #12]
    24c4:	b2db      	uxtb	r3, r3
    24c6:	f083 033a 	eor.w	r3, r3, #58	; 0x3a
    24ca:	ea6f 0303 	mvn.w	r3, r3
    24ce:	b2db      	uxtb	r3, r3
    24d0:	7013      	strb	r3, [r2, #0]
/home/ocean/projects/invisiblecode/invisible-code/optee_qemu/optee_os/lib/libutee/tee_user_mem.c:343
    24d2:	68bb      	ldr	r3, [r7, #8]
    24d4:	9300      	str	r3, [sp, #0]
    24d6:	4b1a      	ldr	r3, [pc, #104]	; (2540 <tee_user_mem_alloc+0x140>)
    24d8:	447b      	add	r3, pc
    24da:	f240 1257 	movw	r2, #343	; 0x157
    24de:	4919      	ldr	r1, [pc, #100]	; (2544 <tee_user_mem_alloc+0x144>)
    24e0:	4479      	add	r1, pc
    24e2:	f04f 0003 	mov.w	r0, #3
    24e6:	f7ff fe11 	bl	210c <print_buf>
/home/ocean/projects/invisiblecode/invisible-code/optee_qemu/optee_os/lib/libutee/tee_user_mem.c:345
    24ea:	68b8      	ldr	r0, [r7, #8]
    24ec:	f7ff fdb6 	bl	205c <buf_addr>
    24f0:	6178      	str	r0, [r7, #20]
/home/ocean/projects/invisiblecode/invisible-code/optee_qemu/optee_os/lib/libutee/tee_user_mem.c:347
    24f2:	683b      	ldr	r3, [r7, #0]
    24f4:	2b00      	cmp	r3, #0
    24f6:	d106      	bne.n	2506 <tee_user_mem_alloc+0x106>
/home/ocean/projects/invisiblecode/invisible-code/optee_qemu/optee_os/lib/libutee/tee_user_mem.c:348
    24f8:	687a      	ldr	r2, [r7, #4]
    24fa:	f04f 0100 	mov.w	r1, #0
    24fe:	6978      	ldr	r0, [r7, #20]
    2500:	f002 f846 	bl	4590 <memset>
    2504:	e009      	b.n	251a <tee_user_mem_alloc+0x11a>
/home/ocean/projects/invisiblecode/invisible-code/optee_qemu/optee_os/lib/libutee/tee_user_mem.c:350
    2506:	683b      	ldr	r3, [r7, #0]
    2508:	f1b3 4f00 	cmp.w	r3, #2147483648	; 0x80000000
    250c:	d105      	bne.n	251a <tee_user_mem_alloc+0x11a>
/home/ocean/projects/invisiblecode/invisible-code/optee_qemu/optee_os/lib/libutee/tee_user_mem.c:352
    250e:	687a      	ldr	r2, [r7, #4]
    2510:	f04f 01bb 	mov.w	r1, #187	; 0xbb
    2514:	6978      	ldr	r0, [r7, #20]
    2516:	f002 f83b 	bl	4590 <memset>
/home/ocean/projects/invisiblecode/invisible-code/optee_qemu/optee_os/lib/libutee/tee_user_mem.c:357
    251a:	697b      	ldr	r3, [r7, #20]
/home/ocean/projects/invisiblecode/invisible-code/optee_qemu/optee_os/lib/libutee/tee_user_mem.c:358
    251c:	4618      	mov	r0, r3
    251e:	f107 0718 	add.w	r7, r7, #24
    2522:	46bd      	mov	sp, r7
    2524:	bd80      	pop	{r7, pc}
    2526:	bf00      	nop
    2528:	0000ac44 	.word	0x0000ac44
    252c:	0000880c 	.word	0x0000880c
    2530:	000088ae 	.word	0x000088ae
    2534:	0000abe2 	.word	0x0000abe2
    2538:	0000abd8 	.word	0x0000abd8
    253c:	0000abcc 	.word	0x0000abcc
    2540:	0000879c 	.word	0x0000879c
    2544:	0000882c 	.word	0x0000882c

00002548 <tee_user_mem_realloc>:
tee_user_mem_realloc():
/home/ocean/projects/invisiblecode/invisible-code/optee_qemu/optee_os/lib/libutee/tee_user_mem.c:367
    2548:	e96d 7e02 	strd	r7, lr, [sp, #-8]!
    254c:	b088      	sub	sp, #32
    254e:	af00      	add	r7, sp, #0
    2550:	6078      	str	r0, [r7, #4]
    2552:	6039      	str	r1, [r7, #0]
/home/ocean/projects/invisiblecode/invisible-code/optee_qemu/optee_os/lib/libutee/tee_user_mem.c:374
    2554:	683b      	ldr	r3, [r7, #0]
    2556:	2b00      	cmp	r3, #0
    2558:	da02      	bge.n	2560 <tee_user_mem_realloc+0x18>
/home/ocean/projects/invisiblecode/invisible-code/optee_qemu/optee_os/lib/libutee/tee_user_mem.c:376
    255a:	f04f 0300 	mov.w	r3, #0
    255e:	e041      	b.n	25e4 <tee_user_mem_realloc+0x9c>
/home/ocean/projects/invisiblecode/invisible-code/optee_qemu/optee_os/lib/libutee/tee_user_mem.c:384
    2560:	687b      	ldr	r3, [r7, #4]
    2562:	2b00      	cmp	r3, #0
    2564:	d00b      	beq.n	257e <tee_user_mem_realloc+0x36>
/home/ocean/projects/invisiblecode/invisible-code/optee_qemu/optee_os/lib/libutee/tee_user_mem.c:384 (discriminator 1)
    2566:	4b22      	ldr	r3, [pc, #136]	; (25f0 <tee_user_mem_realloc+0xa8>)
    2568:	447b      	add	r3, pc
    256a:	681b      	ldr	r3, [r3, #0]
    256c:	687a      	ldr	r2, [r7, #4]
    256e:	429a      	cmp	r2, r3
    2570:	d005      	beq.n	257e <tee_user_mem_realloc+0x36>
/home/ocean/projects/invisiblecode/invisible-code/optee_qemu/optee_os/lib/libutee/tee_user_mem.c:384 (discriminator 2)
    2572:	6878      	ldr	r0, [r7, #4]
    2574:	f7ff fda6 	bl	20c4 <is_buffer_valid>
    2578:	4603      	mov	r3, r0
    257a:	2b00      	cmp	r3, #0
    257c:	d108      	bne.n	2590 <tee_user_mem_realloc+0x48>
/home/ocean/projects/invisiblecode/invisible-code/optee_qemu/optee_os/lib/libutee/tee_user_mem.c:385
    257e:	f04f 0300 	mov.w	r3, #0
    2582:	4619      	mov	r1, r3
    2584:	6838      	ldr	r0, [r7, #0]
    2586:	f7ff ff3b 	bl	2400 <tee_user_mem_alloc>
    258a:	6178      	str	r0, [r7, #20]
/home/ocean/projects/invisiblecode/invisible-code/optee_qemu/optee_os/lib/libutee/tee_user_mem.c:387
    258c:	697b      	ldr	r3, [r7, #20]
    258e:	e029      	b.n	25e4 <tee_user_mem_realloc+0x9c>
/home/ocean/projects/invisiblecode/invisible-code/optee_qemu/optee_os/lib/libutee/tee_user_mem.c:394
    2590:	6878      	ldr	r0, [r7, #4]
    2592:	f7ff fd87 	bl	20a4 <elem_addr>
    2596:	61f8      	str	r0, [r7, #28]
/home/ocean/projects/invisiblecode/invisible-code/optee_qemu/optee_os/lib/libutee/tee_user_mem.c:395
    2598:	69f8      	ldr	r0, [r7, #28]
    259a:	f7ff fd6f 	bl	207c <buf_size>
    259e:	61b8      	str	r0, [r7, #24]
/home/ocean/projects/invisiblecode/invisible-code/optee_qemu/optee_os/lib/libutee/tee_user_mem.c:396
    25a0:	683a      	ldr	r2, [r7, #0]
    25a2:	69bb      	ldr	r3, [r7, #24]
    25a4:	429a      	cmp	r2, r3
    25a6:	d101      	bne.n	25ac <tee_user_mem_realloc+0x64>
/home/ocean/projects/invisiblecode/invisible-code/optee_qemu/optee_os/lib/libutee/tee_user_mem.c:398
    25a8:	687b      	ldr	r3, [r7, #4]
    25aa:	e01b      	b.n	25e4 <tee_user_mem_realloc+0x9c>
/home/ocean/projects/invisiblecode/invisible-code/optee_qemu/optee_os/lib/libutee/tee_user_mem.c:406
    25ac:	69fb      	ldr	r3, [r7, #28]
    25ae:	68db      	ldr	r3, [r3, #12]
    25b0:	4619      	mov	r1, r3
    25b2:	6838      	ldr	r0, [r7, #0]
    25b4:	f7ff ff24 	bl	2400 <tee_user_mem_alloc>
    25b8:	6178      	str	r0, [r7, #20]
/home/ocean/projects/invisiblecode/invisible-code/optee_qemu/optee_os/lib/libutee/tee_user_mem.c:407
    25ba:	697b      	ldr	r3, [r7, #20]
    25bc:	2b00      	cmp	r3, #0
    25be:	d010      	beq.n	25e2 <tee_user_mem_realloc+0x9a>
/home/ocean/projects/invisiblecode/invisible-code/optee_qemu/optee_os/lib/libutee/tee_user_mem.c:408
    25c0:	683b      	ldr	r3, [r7, #0]
    25c2:	613b      	str	r3, [r7, #16]
    25c4:	69bb      	ldr	r3, [r7, #24]
    25c6:	60fb      	str	r3, [r7, #12]
    25c8:	68fa      	ldr	r2, [r7, #12]
    25ca:	693b      	ldr	r3, [r7, #16]
    25cc:	4293      	cmp	r3, r2
    25ce:	bf28      	it	cs
    25d0:	4613      	movcs	r3, r2
    25d2:	461a      	mov	r2, r3
    25d4:	6879      	ldr	r1, [r7, #4]
    25d6:	6978      	ldr	r0, [r7, #20]
    25d8:	f001 fec0 	bl	435c <memcpy>
/home/ocean/projects/invisiblecode/invisible-code/optee_qemu/optee_os/lib/libutee/tee_user_mem.c:411
    25dc:	6878      	ldr	r0, [r7, #4]
    25de:	f000 f809 	bl	25f4 <tee_user_mem_free>
/home/ocean/projects/invisiblecode/invisible-code/optee_qemu/optee_os/lib/libutee/tee_user_mem.c:415
    25e2:	697b      	ldr	r3, [r7, #20]
/home/ocean/projects/invisiblecode/invisible-code/optee_qemu/optee_os/lib/libutee/tee_user_mem.c:416
    25e4:	4618      	mov	r0, r3
    25e6:	f107 0720 	add.w	r7, r7, #32
    25ea:	46bd      	mov	sp, r7
    25ec:	bd80      	pop	{r7, pc}
    25ee:	bf00      	nop
    25f0:	0000ab10 	.word	0x0000ab10

000025f4 <tee_user_mem_free>:
tee_user_mem_free():
/home/ocean/projects/invisiblecode/invisible-code/optee_qemu/optee_os/lib/libutee/tee_user_mem.c:423
    25f4:	e96d 7e02 	strd	r7, lr, [sp, #-8]!
    25f8:	b086      	sub	sp, #24
    25fa:	af02      	add	r7, sp, #8
    25fc:	6078      	str	r0, [r7, #4]
/home/ocean/projects/invisiblecode/invisible-code/optee_qemu/optee_os/lib/libutee/tee_user_mem.c:430
    25fe:	687b      	ldr	r3, [r7, #4]
    2600:	2b00      	cmp	r3, #0
    2602:	d079      	beq.n	26f8 <tee_user_mem_free+0x104>
/home/ocean/projects/invisiblecode/invisible-code/optee_qemu/optee_os/lib/libutee/tee_user_mem.c:430 (discriminator 1)
    2604:	4b3f      	ldr	r3, [pc, #252]	; (2704 <tee_user_mem_free+0x110>)
    2606:	447b      	add	r3, pc
    2608:	681b      	ldr	r3, [r3, #0]
    260a:	687a      	ldr	r2, [r7, #4]
    260c:	429a      	cmp	r2, r3
    260e:	d073      	beq.n	26f8 <tee_user_mem_free+0x104>
/home/ocean/projects/invisiblecode/invisible-code/optee_qemu/optee_os/lib/libutee/tee_user_mem.c:434
    2610:	6878      	ldr	r0, [r7, #4]
    2612:	f7ff fd57 	bl	20c4 <is_buffer_valid>
    2616:	4603      	mov	r3, r0
    2618:	2b00      	cmp	r3, #0
    261a:	d10f      	bne.n	263c <tee_user_mem_free+0x48>
/home/ocean/projects/invisiblecode/invisible-code/optee_qemu/optee_os/lib/libutee/tee_user_mem.c:435
    261c:	687b      	ldr	r3, [r7, #4]
    261e:	9301      	str	r3, [sp, #4]
    2620:	4b39      	ldr	r3, [pc, #228]	; (2708 <tee_user_mem_free+0x114>)
    2622:	447b      	add	r3, pc
    2624:	9300      	str	r3, [sp, #0]
    2626:	f04f 0301 	mov.w	r3, #1
    262a:	f04f 0201 	mov.w	r2, #1
    262e:	f240 11b3 	movw	r1, #435	; 0x1b3
    2632:	4836      	ldr	r0, [pc, #216]	; (270c <tee_user_mem_free+0x118>)
    2634:	4478      	add	r0, pc
    2636:	f003 f8f1 	bl	581c <trace_printf>
/home/ocean/projects/invisiblecode/invisible-code/optee_qemu/optee_os/lib/libutee/tee_user_mem.c:436
    263a:	e05e      	b.n	26fa <tee_user_mem_free+0x106>
/home/ocean/projects/invisiblecode/invisible-code/optee_qemu/optee_os/lib/libutee/tee_user_mem.c:439
    263c:	6878      	ldr	r0, [r7, #4]
    263e:	f7ff fd31 	bl	20a4 <elem_addr>
    2642:	60f8      	str	r0, [r7, #12]
/home/ocean/projects/invisiblecode/invisible-code/optee_qemu/optee_os/lib/libutee/tee_user_mem.c:440
    2644:	68fb      	ldr	r3, [r7, #12]
    2646:	60bb      	str	r3, [r7, #8]
/home/ocean/projects/invisiblecode/invisible-code/optee_qemu/optee_os/lib/libutee/tee_user_mem.c:442
    2648:	68bb      	ldr	r3, [r7, #8]
    264a:	9300      	str	r3, [sp, #0]
    264c:	4b30      	ldr	r3, [pc, #192]	; (2710 <tee_user_mem_free+0x11c>)
    264e:	447b      	add	r3, pc
    2650:	f44f 72dd 	mov.w	r2, #442	; 0x1ba
    2654:	492f      	ldr	r1, [pc, #188]	; (2714 <tee_user_mem_free+0x120>)
    2656:	4479      	add	r1, pc
    2658:	f04f 0003 	mov.w	r0, #3
    265c:	f7ff fd56 	bl	210c <print_buf>
/home/ocean/projects/invisiblecode/invisible-code/optee_qemu/optee_os/lib/libutee/tee_user_mem.c:445
    2660:	68b8      	ldr	r0, [r7, #8]
    2662:	f7ff fe1b 	bl	229c <check_elem>
    2666:	4603      	mov	r3, r0
    2668:	2b00      	cmp	r3, #0
    266a:	d120      	bne.n	26ae <tee_user_mem_free+0xba>
/home/ocean/projects/invisiblecode/invisible-code/optee_qemu/optee_os/lib/libutee/tee_user_mem.c:446
    266c:	4b2a      	ldr	r3, [pc, #168]	; (2718 <tee_user_mem_free+0x124>)
    266e:	447b      	add	r3, pc
    2670:	9300      	str	r3, [sp, #0]
    2672:	f04f 0301 	mov.w	r3, #1
    2676:	f04f 0201 	mov.w	r2, #1
    267a:	f44f 71df 	mov.w	r1, #446	; 0x1be
    267e:	4827      	ldr	r0, [pc, #156]	; (271c <tee_user_mem_free+0x128>)
    2680:	4478      	add	r0, pc
    2682:	f003 f8cb 	bl	581c <trace_printf>
/home/ocean/projects/invisiblecode/invisible-code/optee_qemu/optee_os/lib/libutee/tee_user_mem.c:447
    2686:	f04f 0300 	mov.w	r3, #0
    268a:	9301      	str	r3, [sp, #4]
    268c:	4b24      	ldr	r3, [pc, #144]	; (2720 <tee_user_mem_free+0x12c>)
    268e:	447b      	add	r3, pc
    2690:	9300      	str	r3, [sp, #0]
    2692:	f04f 0301 	mov.w	r3, #1
    2696:	f04f 0201 	mov.w	r2, #1
    269a:	f240 11bf 	movw	r1, #447	; 0x1bf
    269e:	4821      	ldr	r0, [pc, #132]	; (2724 <tee_user_mem_free+0x130>)
    26a0:	4478      	add	r0, pc
    26a2:	f003 f8bb 	bl	581c <trace_printf>
    26a6:	f04f 0000 	mov.w	r0, #0
    26aa:	f7ff fc71 	bl	1f90 <__TEE_Panic>
/home/ocean/projects/invisiblecode/invisible-code/optee_qemu/optee_os/lib/libutee/tee_user_mem.c:451
    26ae:	68bb      	ldr	r3, [r7, #8]
    26b0:	681b      	ldr	r3, [r3, #0]
    26b2:	2b00      	cmp	r3, #0
    26b4:	d005      	beq.n	26c2 <tee_user_mem_free+0xce>
/home/ocean/projects/invisiblecode/invisible-code/optee_qemu/optee_os/lib/libutee/tee_user_mem.c:451 (discriminator 1)
    26b6:	68bb      	ldr	r3, [r7, #8]
    26b8:	681b      	ldr	r3, [r3, #0]
    26ba:	68ba      	ldr	r2, [r7, #8]
    26bc:	6852      	ldr	r2, [r2, #4]
    26be:	605a      	str	r2, [r3, #4]
    26c0:	e004      	b.n	26cc <tee_user_mem_free+0xd8>
/home/ocean/projects/invisiblecode/invisible-code/optee_qemu/optee_os/lib/libutee/tee_user_mem.c:451 (discriminator 2)
    26c2:	68bb      	ldr	r3, [r7, #8]
    26c4:	685b      	ldr	r3, [r3, #4]
